TN:
SF:/home/never/Downloads/sem3_laba3-master/libs/hash_table.h
FN:110,122,_ZN9HashTable12loadFromFileERKNSt7__cxx1112basic_stringIcSt11char_traitsIcESaIcEEE
FN:125,140,_ZNK9HashTable16saveToBinaryFileERKNSt7__cxx1112basic_stringIcSt11char_traitsIcESaIcEEE
FN:14,14,_ZN9HashTable12KeyValuePairC2ERKNSt7__cxx1112basic_stringIcSt11char_traitsIcESaIcEEES8_
FN:143,159,_ZN9HashTable18loadFromBinaryFileERKNSt7__cxx1112basic_stringIcSt11char_traitsIcESaIcEEE
FN:161,163,_ZNK9HashTable11getCapacityEv
FN:20,26,_ZNK9HashTable12hashFunctionERKNSt7__cxx1112basic_stringIcSt11char_traitsIcESaIcEEE
FN:29,34,_ZN9HashTableC2Em
FN:36,46,_ZN9HashTableD2Ev
FN:48,61,_ZN9HashTable4pushERKNSt7__cxx1112basic_stringIcSt11char_traitsIcESaIcEEES7_
FN:63,74,_ZNK9HashTable3getERKNSt7__cxx1112basic_stringIcSt11char_traitsIcESaIcEEERS5_
FN:76,94,_ZN9HashTable3delERKNSt7__cxx1112basic_stringIcSt11char_traitsIcESaIcEEE
FN:97,107,_ZNK9HashTable10saveToFileERKNSt7__cxx1112basic_stringIcSt11char_traitsIcESaIcEEE
FNDA:2,_ZN9HashTable12loadFromFileERKNSt7__cxx1112basic_stringIcSt11char_traitsIcESaIcEEE
FNDA:4,_ZNK9HashTable16saveToBinaryFileERKNSt7__cxx1112basic_stringIcSt11char_traitsIcESaIcEEE
FNDA:2022,_ZN9HashTable12KeyValuePairC2ERKNSt7__cxx1112basic_stringIcSt11char_traitsIcESaIcEEES8_
FNDA:2,_ZN9HashTable18loadFromBinaryFileERKNSt7__cxx1112basic_stringIcSt11char_traitsIcESaIcEEE
FNDA:2,_ZNK9HashTable11getCapacityEv
FNDA:8042,_ZNK9HashTable12hashFunctionERKNSt7__cxx1112basic_stringIcSt11char_traitsIcESaIcEEE
FNDA:26,_ZN9HashTableC2Em
FNDA:26,_ZN9HashTableD2Ev
FNDA:2024,_ZN9HashTable4pushERKNSt7__cxx1112basic_stringIcSt11char_traitsIcESaIcEEES7_
FNDA:4014,_ZNK9HashTable3getERKNSt7__cxx1112basic_stringIcSt11char_traitsIcESaIcEEERS5_
FNDA:2004,_ZN9HashTable3delERKNSt7__cxx1112basic_stringIcSt11char_traitsIcESaIcEEE
FNDA:2,_ZNK9HashTable10saveToFileERKNSt7__cxx1112basic_stringIcSt11char_traitsIcESaIcEEE
FNF:12
FNH:12
DA:14,2022
DA:20,8042
DA:21,8042
DA:22,55330
DA:23,47288
DA:25,8042
DA:29,26
DA:30,26
DA:31,466
DA:32,440
DA:34,26
DA:36,26
DA:37,466
DA:38,440
DA:39,460
DA:40,20
DA:41,20
DA:42,20
DA:45,26
DA:46,26
DA:48,2024
DA:49,2024
DA:50,2024
DA:51,11246
DA:52,9224
DA:53,2
DA:54,2
DA:56,9222
DA:58,2022
DA:59,2022
DA:60,2022
DA:63,4014
DA:64,4014
DA:65,4014
DA:66,13236
DA:67,11232
DA:68,2010
DA:69,2010
DA:71,9222
DA:73,2004
DA:76,2004
DA:77,2004
DA:78,2004
DA:79,2004
DA:80,11226
DA:81,11224
DA:82,2002
DA:83,202
DA:85,1800
DA:87,2002
DA:88,2002
DA:90,9222
DA:91,9222
DA:93,2
DA:97,2
DA:98,2
DA:99,22
DA:100,20
DA:101,24
DA:102,4
DA:103,4
DA:106,2
DA:107,2
DA:110,2
DA:111,2
DA:112,2
DA:113,8
DA:114,4
DA:115,4
DA:116,4
DA:117,4
DA:118,4
DA:119,4
DA:121,2
DA:122,2
DA:125,4
DA:126,4
DA:127,44
DA:128,40
DA:129,44
DA:130,4
DA:131,4
DA:132,4
DA:133,4
DA:134,4
DA:135,4
DA:136,4
DA:139,4
DA:140,4
DA:143,2
DA:144,2
DA:145,4
DA:147,4
DA:149,2
DA:150,2
DA:152,2
DA:153,2
DA:154,2
DA:156,2
DA:157,2
DA:158,2
DA:159,2
DA:161,2
DA:162,2
LF:104
LH:104
end_of_record
TN:
SF:/home/never/Downloads/sem3_laba3-master/libs/listD.h
FN:115,122,_ZN5ListD9printListEv
FN:124,135,_ZN5ListD10saveToFileERKNSt7__cxx1112basic_stringIcSt11char_traitsIcESaIcEEE
FN:137,147,_ZN5ListD16saveToBinaryFileERKNSt7__cxx1112basic_stringIcSt11char_traitsIcESaIcEEE
FN:14,14,_ZN5ListD4NodeC2ERKNSt7__cxx1112basic_stringIcSt11char_traitsIcESaIcEEE
FN:149,161,_ZN5ListD18loadFromBinaryFileERKNSt7__cxx1112basic_stringIcSt11char_traitsIcESaIcEEE
FN:163,168,_ZNK5ListD11getHeadDataB5cxx11Ev
FN:171,173,_ZNK5ListD7getHeadEv
FN:175,177,_ZNK5ListD7getTailEv
FN:21,21,_ZN5ListDC2Ev
FN:23,29,_ZN5ListDD2Ev
FN:31,41,_ZN5ListD5pushhERKNSt7__cxx1112basic_stringIcSt11char_traitsIcESaIcEEE
FN:43,52,_ZN5ListD5pushtERKNSt7__cxx1112basic_stringIcSt11char_traitsIcESaIcEEE
FN:54,67,_ZN5ListD4delhEv
FN:69,83,_ZN5ListD4deltEv
FN:85,113,_ZN5ListD4delvERKNSt7__cxx1112basic_stringIcSt11char_traitsIcESaIcEEE
FNDA:2,_ZN5ListD9printListEv
FNDA:2,_ZN5ListD10saveToFileERKNSt7__cxx1112basic_stringIcSt11char_traitsIcESaIcEEE
FNDA:4,_ZN5ListD16saveToBinaryFileERKNSt7__cxx1112basic_stringIcSt11char_traitsIcESaIcEEE
FNDA:44,_ZN5ListD4NodeC2ERKNSt7__cxx1112basic_stringIcSt11char_traitsIcESaIcEEE
FNDA:2,_ZN5ListD18loadFromBinaryFileERKNSt7__cxx1112basic_stringIcSt11char_traitsIcESaIcEEE
FNDA:2,_ZNK5ListD11getHeadDataB5cxx11Ev
FNDA:30,_ZNK5ListD7getHeadEv
FNDA:22,_ZNK5ListD7getTailEv
FNDA:22,_ZN5ListDC2Ev
FNDA:22,_ZN5ListDD2Ev
FNDA:28,_ZN5ListD5pushhERKNSt7__cxx1112basic_stringIcSt11char_traitsIcESaIcEEE
FNDA:16,_ZN5ListD5pushtERKNSt7__cxx1112basic_stringIcSt11char_traitsIcESaIcEEE
FNDA:4,_ZN5ListD4delhEv
FNDA:4,_ZN5ListD4deltEv
FNDA:4,_ZN5ListD4delvERKNSt7__cxx1112basic_stringIcSt11char_traitsIcESaIcEEE
FNF:15
FNH:15
DA:14,44
DA:21,22
DA:23,22
DA:24,78
DA:25,34
DA:26,34
DA:27,34
DA:29,22
DA:31,28
DA:32,28
DA:33,28
DA:34,28
DA:35,16
DA:37,28
DA:38,28
DA:39,12
DA:41,28
DA:43,16
DA:44,16
DA:45,16
DA:46,12
DA:48,4
DA:49,4
DA:50,4
DA:52,16
DA:54,4
DA:55,4
DA:56,0
DA:57,0
DA:59,4
DA:60,4
DA:61,4
DA:62,2
DA:64,2
DA:66,4
DA:69,4
DA:70,4
DA:71,0
DA:72,0
DA:74,4
DA:75,2
DA:76,2
DA:77,2
DA:79,2
DA:80,2
DA:81,2
DA:82,2
DA:85,4
DA:86,4
DA:87,0
DA:88,0
DA:90,4
DA:91,0
DA:92,0
DA:94,4
DA:95,10
DA:96,6
DA:98,4
DA:99,2
DA:100,2
DA:102,2
DA:103,2
DA:105,0
DA:107,2
DA:108,2
DA:110,0
DA:112,2
DA:115,2
DA:116,2
DA:117,8
DA:118,6
DA:119,6
DA:121,2
DA:122,2
DA:124,2
DA:125,2
DA:126,2
DA:127,8
DA:128,6
DA:129,6
DA:130,4
DA:132,6
DA:134,2
DA:135,2
DA:137,4
DA:138,4
DA:139,4
DA:140,8
DA:141,4
DA:142,4
DA:143,4
DA:144,4
DA:146,4
DA:147,4
DA:149,2
DA:150,2
DA:151,4
DA:153,4
DA:155,2
DA:156,2
DA:158,2
DA:159,2
DA:160,2
DA:161,2
DA:163,2
DA:164,2
DA:165,2
DA:167,0
DA:171,30
DA:172,30
DA:175,22
DA:176,22
LF:112
LH:101
end_of_record
TN:
SF:/home/never/Downloads/sem3_laba3-master/libs/listS.h
FN:105,116,_ZN5ListS10saveToFileERKNSt7__cxx1112basic_stringIcSt11char_traitsIcESaIcEEE
FN:119,129,_ZN5ListS16saveToBinaryFileERKNSt7__cxx1112basic_stringIcSt11char_traitsIcESaIcEEE
FN:13,13,_ZN5ListS4NodeC2ERKNSt7__cxx1112basic_stringIcSt11char_traitsIcESaIcEEE
FN:132,144,_ZN5ListS18loadFromBinaryFileERKNSt7__cxx1112basic_stringIcSt11char_traitsIcESaIcEEE
FN:147,149,_ZNK5ListS7getHeadEv
FN:151,153,_ZNK5ListS7getTailEv
FN:20,20,_ZN5ListSC2Ev
FN:22,28,_ZN5ListSD2Ev
FN:30,37,_ZN5ListS5pushhERKNSt7__cxx1112basic_stringIcSt11char_traitsIcESaIcEEE
FN:39,47,_ZN5ListS5pushtERKNSt7__cxx1112basic_stringIcSt11char_traitsIcESaIcEEE
FN:49,60,_ZN5ListS4delhB5cxx11Ev
FN:62,79,_ZN5ListS4deltB5cxx11Ev
FN:81,103,_ZN5ListS4delvERKNSt7__cxx1112basic_stringIcSt11char_traitsIcESaIcEEE
FNDA:2,_ZN5ListS10saveToFileERKNSt7__cxx1112basic_stringIcSt11char_traitsIcESaIcEEE
FNDA:2,_ZN5ListS16saveToBinaryFileERKNSt7__cxx1112basic_stringIcSt11char_traitsIcESaIcEEE
FNDA:40,_ZN5ListS4NodeC2ERKNSt7__cxx1112basic_stringIcSt11char_traitsIcESaIcEEE
FNDA:2,_ZN5ListS18loadFromBinaryFileERKNSt7__cxx1112basic_stringIcSt11char_traitsIcESaIcEEE
FNDA:30,_ZNK5ListS7getHeadEv
FNDA:24,_ZNK5ListS7getTailEv
FNDA:24,_ZN5ListSC2Ev
FNDA:24,_ZN5ListSD2Ev
FNDA:26,_ZN5ListS5pushhERKNSt7__cxx1112basic_stringIcSt11char_traitsIcESaIcEEE
FNDA:14,_ZN5ListS5pushtERKNSt7__cxx1112basic_stringIcSt11char_traitsIcESaIcEEE
FNDA:8,_ZN5ListS4delhB5cxx11Ev
FNDA:6,_ZN5ListS4deltB5cxx11Ev
FNDA:4,_ZN5ListS4delvERKNSt7__cxx1112basic_stringIcSt11char_traitsIcESaIcEEE
FNF:13
FNH:13
DA:13,40
DA:20,24
DA:22,24
DA:23,76
DA:24,28
DA:25,28
DA:26,28
DA:28,24
DA:30,26
DA:31,26
DA:32,26
DA:33,26
DA:34,26
DA:35,14
DA:37,26
DA:39,14
DA:40,14
DA:41,14
DA:42,10
DA:44,4
DA:45,4
DA:47,14
DA:49,8
DA:50,8
DA:51,0
DA:53,8
DA:54,8
DA:55,8
DA:56,4
DA:58,8
DA:59,16
DA:62,6
DA:63,6
DA:64,4
DA:66,4
DA:67,2
DA:68,2
DA:69,4
DA:71,2
DA:72,2
DA:73,0
DA:75,2
DA:76,2
DA:77,2
DA:78,4
DA:81,4
DA:82,4
DA:83,0
DA:85,4
DA:86,2
DA:87,4
DA:89,2
DA:90,4
DA:91,2
DA:93,2
DA:94,4
DA:96,0
DA:97,0
DA:98,0
DA:99,0
DA:101,0
DA:102,0
DA:105,2
DA:106,2
DA:107,2
DA:108,8
DA:109,6
DA:110,6
DA:111,4
DA:113,6
DA:115,2
DA:116,2
DA:119,2
DA:120,2
DA:121,2
DA:122,4
DA:123,2
DA:124,2
DA:125,2
DA:126,2
DA:128,2
DA:129,2
DA:132,2
DA:133,2
DA:134,4
DA:136,4
DA:138,2
DA:139,2
DA:141,2
DA:142,2
DA:143,2
DA:144,2
DA:147,30
DA:148,30
DA:151,24
DA:152,24
LF:96
LH:87
end_of_record
TN:
SF:/home/never/Downloads/sem3_laba3-master/libs/massive.h
FN:102,116,_ZNK8StrArray9serializeERKNSt7__cxx1112basic_stringIcSt11char_traitsIcESaIcEEE
FN:119,139,_ZN8StrArray11deserializeERKNSt7__cxx1112basic_stringIcSt11char_traitsIcESaIcEEE
FN:13,17,_ZN8StrArrayC2Em
FN:141,143,_ZNK8StrArray11getCapacityEv
FN:20,22,_ZN8StrArrayD2Ev
FN:24,33,_ZN8StrArray6resizeEv
FN:35,40,_ZN8StrArray4pushERKNSt7__cxx1112basic_stringIcSt11char_traitsIcESaIcEEE
FN:42,44,_ZNK8StrArray5sizeMEv
FN:46,60,_ZN8StrArray5pushiEmRKNSt7__cxx1112basic_stringIcSt11char_traitsIcESaIcEEE
FN:62,69,_ZN8StrArray3getEmRNSt7__cxx1112basic_stringIcSt11char_traitsIcESaIcEEE
FN:71,77,_ZN8StrArray7replaceEmRKNSt7__cxx1112basic_stringIcSt11char_traitsIcESaIcEEE
FN:79,88,_ZN8StrArray3delEm
FN:90,99,_ZNK8StrArray10saveToFileERKNSt7__cxx1112basic_stringIcSt11char_traitsIcESaIcEEE
FNDA:2,_ZNK8StrArray9serializeERKNSt7__cxx1112basic_stringIcSt11char_traitsIcESaIcEEE
FNDA:2,_ZN8StrArray11deserializeERKNSt7__cxx1112basic_stringIcSt11char_traitsIcESaIcEEE
FNDA:22,_ZN8StrArrayC2Em
FNDA:8,_ZNK8StrArray11getCapacityEv
FNDA:22,_ZN8StrArrayD2Ev
FNDA:2,_ZN8StrArray6resizeEv
FNDA:46,_ZN8StrArray4pushERKNSt7__cxx1112basic_stringIcSt11char_traitsIcESaIcEEE
FNDA:28,_ZNK8StrArray5sizeMEv
FNDA:4,_ZN8StrArray5pushiEmRKNSt7__cxx1112basic_stringIcSt11char_traitsIcESaIcEEE
FNDA:42,_ZN8StrArray3getEmRNSt7__cxx1112basic_stringIcSt11char_traitsIcESaIcEEE
FNDA:2,_ZN8StrArray7replaceEmRKNSt7__cxx1112basic_stringIcSt11char_traitsIcESaIcEEE
FNDA:2,_ZN8StrArray3delEm
FNDA:2,_ZNK8StrArray10saveToFileERKNSt7__cxx1112basic_stringIcSt11char_traitsIcESaIcEEE
FNF:13
FNH:13
DA:13,22
DA:14,22
DA:15,22
DA:16,126
DA:17,22
DA:20,22
DA:21,130
DA:22,22
DA:24,2
DA:25,2
DA:26,10
DA:27,6
DA:28,4
DA:30,6
DA:31,2
DA:32,2
DA:33,2
DA:35,46
DA:36,46
DA:37,2
DA:39,46
DA:40,46
DA:42,28
DA:43,28
DA:46,4
DA:47,4
DA:48,2
DA:49,2
DA:51,2
DA:52,0
DA:55,4
DA:56,2
DA:58,2
DA:59,2
DA:62,42
DA:63,42
DA:65,2
DA:67,40
DA:68,40
DA:71,2
DA:72,2
DA:73,0
DA:74,0
DA:76,2
DA:79,2
DA:80,2
DA:81,0
DA:82,0
DA:84,4
DA:85,2
DA:87,2
DA:90,2
DA:91,2
DA:92,8
DA:93,6
DA:94,6
DA:95,4
DA:98,2
DA:99,2
DA:102,2
DA:103,2
DA:104,2
DA:105,0
DA:106,0
DA:108,2
DA:109,2
DA:110,10
DA:111,8
DA:112,8
DA:113,8
DA:115,2
DA:116,2
DA:119,2
DA:120,2
DA:121,2
DA:122,0
DA:123,0
DA:125,2
DA:126,2
DA:127,12
DA:128,12
DA:129,10
DA:131,8
DA:132,8
DA:133,8
DA:134,8
DA:135,8
DA:136,8
DA:138,2
DA:139,2
DA:141,8
DA:142,8
LF:92
LH:83
end_of_record
TN:
SF:/home/never/Downloads/sem3_laba3-master/libs/queue.h
FN:14,14,_ZN5Queue4NodeC2ERKNSt7__cxx1112basic_stringIcSt11char_traitsIcESaIcEEE
FN:21,21,_ZN5QueueC2Ev
FN:23,29,_ZN5QueueD2Ev
FN:31,40,_ZN5Queue4pushERKNSt7__cxx1112basic_stringIcSt11char_traitsIcESaIcEEE
FN:42,51,_ZN5Queue3delEv
FN:53,64,_ZN5Queue10saveToFileERKNSt7__cxx1112basic_stringIcSt11char_traitsIcESaIcEEE
FN:67,77,_ZN5Queue16saveToBinaryFileERKNSt7__cxx1112basic_stringIcSt11char_traitsIcESaIcEEE
FN:80,92,_ZN5Queue18loadFromBinaryFileERKNSt7__cxx1112basic_stringIcSt11char_traitsIcESaIcEEE
FN:94,96,_ZNK5Queue7getHeadEv
FN:98,100,_ZNK5Queue7getTailEv
FNDA:20,_ZN5Queue4NodeC2ERKNSt7__cxx1112basic_stringIcSt11char_traitsIcESaIcEEE
FNDA:12,_ZN5QueueC2Ev
FNDA:12,_ZN5QueueD2Ev
FNDA:20,_ZN5Queue4pushERKNSt7__cxx1112basic_stringIcSt11char_traitsIcESaIcEEE
FNDA:4,_ZN5Queue3delEv
FNDA:2,_ZN5Queue10saveToFileERKNSt7__cxx1112basic_stringIcSt11char_traitsIcESaIcEEE
FNDA:2,_ZN5Queue16saveToBinaryFileERKNSt7__cxx1112basic_stringIcSt11char_traitsIcESaIcEEE
FNDA:2,_ZN5Queue18loadFromBinaryFileERKNSt7__cxx1112basic_stringIcSt11char_traitsIcESaIcEEE
FNDA:14,_ZNK5Queue7getHeadEv
FNDA:16,_ZNK5Queue7getTailEv
FNF:10
FNH:10
DA:14,20
DA:21,12
DA:23,12
DA:24,40
DA:25,16
DA:26,16
DA:27,16
DA:29,12
DA:31,20
DA:32,20
DA:33,20
DA:34,12
DA:36,8
DA:37,8
DA:38,8
DA:40,20
DA:42,4
DA:43,4
DA:44,4
DA:45,4
DA:46,2
DA:48,2
DA:50,4
DA:51,4
DA:53,2
DA:54,2
DA:55,2
DA:56,8
DA:57,6
DA:58,6
DA:59,4
DA:61,6
DA:63,2
DA:64,2
DA:67,2
DA:68,2
DA:69,2
DA:70,4
DA:71,2
DA:72,2
DA:73,2
DA:74,2
DA:76,2
DA:77,2
DA:80,2
DA:81,2
DA:82,4
DA:84,4
DA:86,2
DA:87,2
DA:89,2
DA:90,2
DA:91,2
DA:92,2
DA:94,14
DA:95,14
DA:98,16
DA:99,16
LF:58
LH:58
end_of_record
TN:
SF:/home/never/Downloads/sem3_laba3-master/libs/stack.h
FN:13,13,_ZN5Stack4NodeC2ERKNSt7__cxx1112basic_stringIcSt11char_traitsIcESaIcEEE
FN:19,19,_ZN5StackC2Ev
FN:21,27,_ZN5StackD2Ev
FN:29,33,_ZN5Stack4pushERKNSt7__cxx1112basic_stringIcSt11char_traitsIcESaIcEEE
FN:35,41,_ZN5Stack3delEv
FN:43,54,_ZN5Stack10saveToFileERKNSt7__cxx1112basic_stringIcSt11char_traitsIcESaIcEEE
FN:57,67,_ZN5Stack16saveToBinaryFileERKNSt7__cxx1112basic_stringIcSt11char_traitsIcESaIcEEE
FN:70,82,_ZN5Stack18loadFromBinaryFileERKNSt7__cxx1112basic_stringIcSt11char_traitsIcESaIcEEE
FN:85,87,_ZNK5Stack6getTopEv
FNDA:20,_ZN5Stack4NodeC2ERKNSt7__cxx1112basic_stringIcSt11char_traitsIcESaIcEEE
FNDA:12,_ZN5StackC2Ev
FNDA:12,_ZN5StackD2Ev
FNDA:20,_ZN5Stack4pushERKNSt7__cxx1112basic_stringIcSt11char_traitsIcESaIcEEE
FNDA:4,_ZN5Stack3delEv
FNDA:2,_ZN5Stack10saveToFileERKNSt7__cxx1112basic_stringIcSt11char_traitsIcESaIcEEE
FNDA:2,_ZN5Stack16saveToBinaryFileERKNSt7__cxx1112basic_stringIcSt11char_traitsIcESaIcEEE
FNDA:2,_ZN5Stack18loadFromBinaryFileERKNSt7__cxx1112basic_stringIcSt11char_traitsIcESaIcEEE
FNDA:16,_ZNK5Stack6getTopEv
FNF:9
FNH:9
DA:13,20
DA:19,12
DA:21,12
DA:22,40
DA:23,16
DA:24,16
DA:25,16
DA:27,12
DA:29,20
DA:30,20
DA:31,20
DA:32,20
DA:33,20
DA:35,4
DA:36,4
DA:37,4
DA:38,4
DA:39,4
DA:41,4
DA:43,2
DA:44,2
DA:45,2
DA:46,8
DA:47,6
DA:48,6
DA:49,4
DA:51,6
DA:53,2
DA:54,2
DA:57,2
DA:58,2
DA:59,2
DA:60,4
DA:61,2
DA:62,2
DA:63,2
DA:64,2
DA:66,2
DA:67,2
DA:70,2
DA:71,2
DA:72,4
DA:74,4
DA:76,2
DA:77,2
DA:79,2
DA:80,2
DA:81,2
DA:82,2
DA:85,16
DA:86,16
LF:51
LH:51
end_of_record
TN:
SF:/home/never/Downloads/sem3_laba3-master/libs/tree.h
FN:107,115,_ZNK7AVLTree12minValueNodeEPNS_4NodeE
FN:117,167,_ZN7AVLTree10deleteNodeEPNS_4NodeEi
FN:12,12,_ZN7AVLTree4NodeC2Ei
FN:18,20,_ZNK7AVLTree6heightEPNS_4NodeE
FN:182,189,_ZN7AVLTree4freeEPNS_4NodeE
FN:204,204,_ZN7AVLTreeC2Ev
FN:206,208,_ZN7AVLTreeD2Ev
FN:210,219,_ZNK7AVLTree9serializeERKNSt7__cxx1112basic_stringIcSt11char_traitsIcESaIcEEE
FN:22,24,_ZNK7AVLTree10getBalanceEPNS_4NodeE
FN:222,235,_ZNK7AVLTree13serializeNodeEPNS_4NodeERSt14basic_ofstreamIcSt11char_traitsIcEE
FN:238,248,_ZN7AVLTree11deserializeERKNSt7__cxx1112basic_stringIcSt11char_traitsIcESaIcEEE
FN:251,267,_ZN7AVLTree15deserializeNodeERSt14basic_ifstreamIcSt11char_traitsIcEE
FN:26,30,_ZN7AVLTree12updateHeightEPNS_4NodeE
FN:269,271,_ZN7AVLTree6insertEi
FN:273,275,_ZNK7AVLTree6searchEi
FN:277,279,_ZN7AVLTree6removeEi
FN:285,288,_ZN7AVLTree5clearEv
FN:32,43,_ZN7AVLTree11rotateRightEPNS_4NodeE
FN:45,56,_ZN7AVLTree10rotateLeftEPNS_4NodeE
FN:58,93,_ZN7AVLTree6insertEPNS_4NodeEi
FN:95,105,_ZNK7AVLTree6searchEPNS_4NodeEi
FNDA:2,_ZNK7AVLTree12minValueNodeEPNS_4NodeE
FNDA:18,_ZN7AVLTree10deleteNodeEPNS_4NodeEi
FNDA:34,_ZN7AVLTree4NodeC2Ei
FNDA:152,_ZNK7AVLTree6heightEPNS_4NodeE
FNDA:84,_ZN7AVLTree4freeEPNS_4NodeE
FNDA:22,_ZN7AVLTreeC2Ev
FNDA:22,_ZN7AVLTreeD2Ev
FNDA:6,_ZNK7AVLTree9serializeERKNSt7__cxx1112basic_stringIcSt11char_traitsIcESaIcEEE
FNDA:32,_ZNK7AVLTree10getBalanceEPNS_4NodeE
FNDA:22,_ZNK7AVLTree13serializeNodeEPNS_4NodeERSt14basic_ofstreamIcSt11char_traitsIcEE
FNDA:6,_ZN7AVLTree11deserializeERKNSt7__cxx1112basic_stringIcSt11char_traitsIcESaIcEEE
FNDA:22,_ZN7AVLTree15deserializeNodeERSt14basic_ifstreamIcSt11char_traitsIcEE
FNDA:44,_ZN7AVLTree12updateHeightEPNS_4NodeE
FNDA:30,_ZN7AVLTree6insertEi
FNDA:48,_ZNK7AVLTree6searchEi
FNDA:10,_ZN7AVLTree6removeEi
FNDA:28,_ZN7AVLTree5clearEv
FNDA:0,_ZN7AVLTree11rotateRightEPNS_4NodeE
FNDA:6,_ZN7AVLTree10rotateLeftEPNS_4NodeE
FNDA:62,_ZN7AVLTree6insertEPNS_4NodeEi
FNDA:82,_ZNK7AVLTree6searchEPNS_4NodeEi
FNF:21
FNH:20
DA:12,34
DA:18,152
DA:19,152
DA:22,32
DA:23,32
DA:26,44
DA:27,44
DA:28,44
DA:30,44
DA:32,0
DA:33,0
DA:34,0
DA:36,0
DA:37,0
DA:39,0
DA:40,0
DA:42,0
DA:45,6
DA:46,6
DA:47,6
DA:49,6
DA:50,6
DA:52,6
DA:53,6
DA:55,6
DA:58,62
DA:59,62
DA:61,28
DA:62,2
DA:63,26
DA:64,22
DA:66,4
DA:69,24
DA:71,24
DA:74,24
DA:75,0
DA:78,24
DA:79,6
DA:82,18
DA:83,0
DA:84,0
DA:87,18
DA:88,0
DA:89,0
DA:92,18
DA:95,82
DA:96,82
DA:97,48
DA:100,34
DA:101,10
DA:104,24
DA:107,2
DA:108,2
DA:110,2
DA:111,0
DA:114,2
DA:117,18
DA:118,18
DA:120,14
DA:121,2
DA:122,12
DA:123,4
DA:125,8
DA:126,6
DA:128,6
DA:129,6
DA:130,6
DA:132,0
DA:134,6
DA:135,6
DA:136,2
DA:137,2
DA:138,2
DA:142,14
DA:144,8
DA:146,8
DA:148,8
DA:149,0
DA:152,8
DA:153,0
DA:156,8
DA:157,0
DA:158,0
DA:161,8
DA:162,0
DA:163,0
DA:166,8
DA:182,84
DA:183,84
DA:185,28
DA:186,28
DA:188,28
DA:204,22
DA:206,22
DA:207,22
DA:208,22
DA:210,6
DA:211,6
DA:212,6
DA:213,0
DA:214,0
DA:217,6
DA:218,6
DA:219,6
DA:222,22
DA:223,22
DA:224,14
DA:225,14
DA:226,14
DA:229,8
DA:230,8
DA:231,8
DA:233,8
DA:234,8
DA:238,6
DA:239,6
DA:240,6
DA:241,0
DA:242,0
DA:245,6
DA:246,6
DA:247,6
DA:248,6
DA:251,22
DA:253,22
DA:255,22
DA:256,14
DA:260,8
DA:262,8
DA:265,8
DA:266,8
DA:269,30
DA:270,30
DA:271,30
DA:273,48
DA:274,48
DA:277,10
DA:278,10
DA:279,10
DA:285,28
DA:286,28
DA:287,28
DA:288,28
LF:143
LH:118
end_of_record
TN:
SF:/home/never/Downloads/sem3_laba3-master/tests/test.cpp
FN:102,102,_ZN24StrArrayTest_Delete_Test8TestBodyEv
FN:102,102,_ZN24StrArrayTest_Delete_TestC2Ev
FN:102,102,_ZN24StrArrayTest_Delete_TestD0Ev
FN:102,102,_ZN24StrArrayTest_Delete_TestD2Ev
FN:117,117,_ZN28StrArrayTest_SaveToFile_Test8TestBodyEv
FN:117,117,_ZN28StrArrayTest_SaveToFile_TestC2Ev
FN:117,117,_ZN28StrArrayTest_SaveToFile_TestD0Ev
FN:117,117,_ZN28StrArrayTest_SaveToFile_TestD2Ev
FN:13,13,_ZN32StrArrayTest_Initialization_Test8TestBodyEv
FN:13,13,_ZN32StrArrayTest_Initialization_TestC2Ev
FN:13,13,_ZN32StrArrayTest_Initialization_TestD0Ev
FN:13,13,_ZN32StrArrayTest_Initialization_TestD2Ev
FN:132,132,_ZN38StrArrayTest_SerializeDeserialize_Test8TestBodyEv
FN:132,132,_ZN38StrArrayTest_SerializeDeserialize_TestC2Ev
FN:132,132,_ZN38StrArrayTest_SerializeDeserialize_TestD0Ev
FN:132,132,_ZN38StrArrayTest_SerializeDeserialize_TestD2Ev
FN:159,159,_ZN34HashTableTest_CreateHashTable_Test8TestBodyEv
FN:159,159,_ZN34HashTableTest_CreateHashTable_TestC2Ev
FN:159,159,_ZN34HashTableTest_CreateHashTable_TestD0Ev
FN:159,159,_ZN34HashTableTest_CreateHashTable_TestD2Ev
FN:165,165,_ZN34HashTableTest_PushExistingKey_Test8TestBodyEv
FN:165,165,_ZN34HashTableTest_PushExistingKey_TestC2Ev
FN:165,165,_ZN34HashTableTest_PushExistingKey_TestD0Ev
FN:165,165,_ZN34HashTableTest_PushExistingKey_TestD2Ev
FN:175,175,_ZN30HashTableTest_PushSuccess_Test8TestBodyEv
FN:175,175,_ZN30HashTableTest_PushSuccess_TestC2Ev
FN:175,175,_ZN30HashTableTest_PushSuccess_TestD0Ev
FN:175,175,_ZN30HashTableTest_PushSuccess_TestD2Ev
FN:184,188,_ZN33HashTableTest_GetKeyNotFound_Test8TestBodyEv
FN:184,188,_ZN33HashTableTest_GetKeyNotFound_TestC2Ev
FN:184,188,_ZN33HashTableTest_GetKeyNotFound_TestD0Ev
FN:184,188,_ZN33HashTableTest_GetKeyNotFound_TestD2Ev
FN:191,191,_ZN30HashTableTest_GetKeyFound_Test8TestBodyEv
FN:191,191,_ZN30HashTableTest_GetKeyFound_TestC2Ev
FN:191,191,_ZN30HashTableTest_GetKeyFound_TestD0Ev
FN:191,191,_ZN30HashTableTest_GetKeyFound_TestD2Ev
FN:200,200,_ZN35HashTableTest_DeleteKeySuccess_Test8TestBodyEv
FN:200,200,_ZN35HashTableTest_DeleteKeySuccess_TestC2Ev
FN:200,200,_ZN35HashTableTest_DeleteKeySuccess_TestD0Ev
FN:200,200,_ZN35HashTableTest_DeleteKeySuccess_TestD2Ev
FN:209,212,_ZN36HashTableTest_DeleteKeyNotFound_Test8TestBodyEv
FN:209,212,_ZN36HashTableTest_DeleteKeyNotFound_TestC2Ev
FN:209,212,_ZN36HashTableTest_DeleteKeyNotFound_TestD0Ev
FN:209,212,_ZN36HashTableTest_DeleteKeyNotFound_TestD2Ev
FN:21,21,_ZN22StrArrayTest_Push_Test8TestBodyEv
FN:21,21,_ZN22StrArrayTest_Push_TestC2Ev
FN:21,21,_ZN22StrArrayTest_Push_TestD0Ev
FN:21,21,_ZN22StrArrayTest_Push_TestD2Ev
FN:215,230,_ZN38HashTableTest_SaveAndLoadFromFile_Test8TestBodyEv
FN:215,230,_ZN38HashTableTest_SaveAndLoadFromFile_TestC2Ev
FN:215,230,_ZN38HashTableTest_SaveAndLoadFromFile_TestD0Ev
FN:215,230,_ZN38HashTableTest_SaveAndLoadFromFile_TestD2Ev
FN:233,233,_ZN42HashTableTest_LargeNumberOfOperations_Test8TestBodyEv
FN:233,233,_ZN42HashTableTest_LargeNumberOfOperations_TestC2Ev
FN:233,233,_ZN42HashTableTest_LargeNumberOfOperations_TestD0Ev
FN:233,233,_ZN42HashTableTest_LargeNumberOfOperations_TestD2Ev
FN:253,253,_ZN35HashTableTest_SaveToBinaryFile_Test8TestBodyEv
FN:253,253,_ZN35HashTableTest_SaveToBinaryFile_TestC2Ev
FN:253,253,_ZN35HashTableTest_SaveToBinaryFile_TestD0Ev
FN:253,253,_ZN35HashTableTest_SaveToBinaryFile_TestD2Ev
FN:280,280,_ZN37HashTableTest_LoadFromBinaryFile_Test8TestBodyEv
FN:280,280,_ZN37HashTableTest_LoadFromBinaryFile_TestC2Ev
FN:280,280,_ZN37HashTableTest_LoadFromBinaryFile_TestD0Ev
FN:280,280,_ZN37HashTableTest_LoadFromBinaryFile_TestD2Ev
FN:298,298,_ZN25ListDTest_CreateList_Test8TestBodyEv
FN:298,298,_ZN25ListDTest_CreateList_TestC2Ev
FN:298,298,_ZN25ListDTest_CreateList_TestD0Ev
FN:298,298,_ZN25ListDTest_CreateList_TestD2Ev
FN:305,315,_ZN23ListDTest_PushHead_Test8TestBodyEv
FN:305,315,_ZN23ListDTest_PushHead_TestC2Ev
FN:305,315,_ZN23ListDTest_PushHead_TestD0Ev
FN:305,315,_ZN23ListDTest_PushHead_TestD2Ev
FN:318,318,_ZN23ListDTest_PushTail_Test8TestBodyEv
FN:318,318,_ZN23ListDTest_PushTail_TestC2Ev
FN:318,318,_ZN23ListDTest_PushTail_TestD0Ev
FN:318,318,_ZN23ListDTest_PushTail_TestD2Ev
FN:331,331,_ZN25ListDTest_DeleteHead_Test8TestBodyEv
FN:331,331,_ZN25ListDTest_DeleteHead_TestC2Ev
FN:331,331,_ZN25ListDTest_DeleteHead_TestD0Ev
FN:331,331,_ZN25ListDTest_DeleteHead_TestD2Ev
FN:346,358,_ZN25ListDTest_DeleteTail_Test8TestBodyEv
FN:346,358,_ZN25ListDTest_DeleteTail_TestC2Ev
FN:346,358,_ZN25ListDTest_DeleteTail_TestD0Ev
FN:346,358,_ZN25ListDTest_DeleteTail_TestD2Ev
FN:35,35,_ZN24StrArrayTest_Resize_Test8TestBodyEv
FN:35,35,_ZN24StrArrayTest_Resize_TestC2Ev
FN:35,35,_ZN24StrArrayTest_Resize_TestD0Ev
FN:35,35,_ZN24StrArrayTest_Resize_TestD2Ev
FN:361,361,_ZN26ListDTest_DeleteValue_Test8TestBodyEv
FN:361,361,_ZN26ListDTest_DeleteValue_TestC2Ev
FN:361,361,_ZN26ListDTest_DeleteValue_TestD0Ev
FN:361,361,_ZN26ListDTest_DeleteValue_TestD2Ev
FN:381,391,_ZN24ListDTest_PrintList_Test8TestBodyEv
FN:381,391,_ZN24ListDTest_PrintList_TestC2Ev
FN:381,391,_ZN24ListDTest_PrintList_TestD0Ev
FN:381,391,_ZN24ListDTest_PrintList_TestD2Ev
FN:394,394,_ZN25ListDTest_SaveToFile_Test8TestBodyEv
FN:394,394,_ZN25ListDTest_SaveToFile_TestC2Ev
FN:394,394,_ZN25ListDTest_SaveToFile_TestD0Ev
FN:394,394,_ZN25ListDTest_SaveToFile_TestD2Ev
FN:413,413,_ZN31ListDTest_SaveToBinaryFile_Test8TestBodyEv
FN:413,413,_ZN31ListDTest_SaveToBinaryFile_TestC2Ev
FN:413,413,_ZN31ListDTest_SaveToBinaryFile_TestD0Ev
FN:413,413,_ZN31ListDTest_SaveToBinaryFile_TestD2Ev
FN:436,436,_ZN33ListDTest_LoadFromBinaryFile_Test8TestBodyEv
FN:436,436,_ZN33ListDTest_LoadFromBinaryFile_TestC2Ev
FN:436,436,_ZN33ListDTest_LoadFromBinaryFile_TestD0Ev
FN:436,436,_ZN33ListDTest_LoadFromBinaryFile_TestD2Ev
FN:45,45,_ZN23StrArrayTest_Pushi_Test8TestBodyEv
FN:45,45,_ZN23StrArrayTest_Pushi_TestC2Ev
FN:45,45,_ZN23StrArrayTest_Pushi_TestD0Ev
FN:45,45,_ZN23StrArrayTest_Pushi_TestD2Ev
FN:455,459,_ZN25ListSTest_CreateList_Test8TestBodyEv
FN:455,459,_ZN25ListSTest_CreateList_TestC2Ev
FN:455,459,_ZN25ListSTest_CreateList_TestD0Ev
FN:455,459,_ZN25ListSTest_CreateList_TestD2Ev
FN:462,472,_ZN23ListSTest_PushHead_Test8TestBodyEv
FN:462,472,_ZN23ListSTest_PushHead_TestC2Ev
FN:462,472,_ZN23ListSTest_PushHead_TestD0Ev
FN:462,472,_ZN23ListSTest_PushHead_TestD2Ev
FN:475,475,_ZN23ListSTest_PushTail_Test8TestBodyEv
FN:475,475,_ZN23ListSTest_PushTail_TestC2Ev
FN:475,475,_ZN23ListSTest_PushTail_TestD0Ev
FN:475,475,_ZN23ListSTest_PushTail_TestD2Ev
FN:488,488,_ZN25ListSTest_DeleteHead_Test8TestBodyEv
FN:488,488,_ZN25ListSTest_DeleteHead_TestC2Ev
FN:488,488,_ZN25ListSTest_DeleteHead_TestD0Ev
FN:488,488,_ZN25ListSTest_DeleteHead_TestD2Ev
FN:503,503,_ZN25ListSTest_DeleteTail_Test8TestBodyEv
FN:503,503,_ZN25ListSTest_DeleteTail_TestC2Ev
FN:503,503,_ZN25ListSTest_DeleteTail_TestD0Ev
FN:503,503,_ZN25ListSTest_DeleteTail_TestD2Ev
FN:518,518,_ZN30ListSTest_DelvHeadElement_Test8TestBodyEv
FN:518,518,_ZN30ListSTest_DelvHeadElement_TestC2Ev
FN:518,518,_ZN30ListSTest_DelvHeadElement_TestD0Ev
FN:518,518,_ZN30ListSTest_DelvHeadElement_TestD2Ev
FN:527,527,_ZN36ListSTest_DelhSingleElementList_Test8TestBodyEv
FN:527,527,_ZN36ListSTest_DelhSingleElementList_TestC2Ev
FN:527,527,_ZN36ListSTest_DelhSingleElementList_TestD0Ev
FN:527,527,_ZN36ListSTest_DelhSingleElementList_TestD2Ev
FN:536,536,_ZN28ListSTest_DeltEmptyList_Test8TestBodyEv
FN:536,536,_ZN28ListSTest_DeltEmptyList_TestC2Ev
FN:536,536,_ZN28ListSTest_DeltEmptyList_TestD0Ev
FN:536,536,_ZN28ListSTest_DeltEmptyList_TestD2Ev
FN:542,542,_ZN34ListSTest_DelvElementNotFound_Test8TestBodyEv
FN:542,542,_ZN34ListSTest_DelvElementNotFound_TestC2Ev
FN:542,542,_ZN34ListSTest_DelvElementNotFound_TestD0Ev
FN:542,542,_ZN34ListSTest_DelvElementNotFound_TestD2Ev
FN:550,550,_ZN25ListSTest_SaveToFile_Test8TestBodyEv
FN:550,550,_ZN25ListSTest_SaveToFile_TestC2Ev
FN:550,550,_ZN25ListSTest_SaveToFile_TestD0Ev
FN:550,550,_ZN25ListSTest_SaveToFile_TestD2Ev
FN:569,569,_ZN43ListSTest_SerializationDeserialization_Test8TestBodyEv
FN:569,569,_ZN43ListSTest_SerializationDeserialization_TestC2Ev
FN:569,569,_ZN43ListSTest_SerializationDeserialization_TestD0Ev
FN:569,569,_ZN43ListSTest_SerializationDeserialization_TestD2Ev
FN:588,588,_ZN26QueueTest_CreateQueue_Test8TestBodyEv
FN:588,588,_ZN26QueueTest_CreateQueue_TestC2Ev
FN:588,588,_ZN26QueueTest_CreateQueue_TestD0Ev
FN:588,588,_ZN26QueueTest_CreateQueue_TestD2Ev
FN:595,595,_ZN19QueueTest_Push_Test8TestBodyEv
FN:595,595,_ZN19QueueTest_Push_TestC2Ev
FN:595,595,_ZN19QueueTest_Push_TestD0Ev
FN:595,595,_ZN19QueueTest_Push_TestD2Ev
FN:608,608,_ZN21QueueTest_Delete_Test8TestBodyEv
FN:608,608,_ZN21QueueTest_Delete_TestC2Ev
FN:608,608,_ZN21QueueTest_Delete_TestD0Ev
FN:608,608,_ZN21QueueTest_Delete_TestD2Ev
FN:61,75,_ZN34StrArrayTest_PushiOutOfBounds_Test8TestBodyEv
FN:61,75,_ZN34StrArrayTest_PushiOutOfBounds_TestC2Ev
FN:61,75,_ZN34StrArrayTest_PushiOutOfBounds_TestD0Ev
FN:61,75,_ZN34StrArrayTest_PushiOutOfBounds_TestD2Ev
FN:623,623,_ZN25QueueTest_SaveToFile_Test8TestBodyEv
FN:623,623,_ZN25QueueTest_SaveToFile_TestC2Ev
FN:623,623,_ZN25QueueTest_SaveToFile_TestD0Ev
FN:623,623,_ZN25QueueTest_SaveToFile_TestD2Ev
FN:642,642,_ZN43QueueTest_SerializationDeserialization_Test8TestBodyEv
FN:642,642,_ZN43QueueTest_SerializationDeserialization_TestC2Ev
FN:642,642,_ZN43QueueTest_SerializationDeserialization_TestD0Ev
FN:642,642,_ZN43QueueTest_SerializationDeserialization_TestD2Ev
FN:661,661,_ZN26StackTest_CreateStack_Test8TestBodyEv
FN:661,661,_ZN26StackTest_CreateStack_TestC2Ev
FN:661,661,_ZN26StackTest_CreateStack_TestD0Ev
FN:661,661,_ZN26StackTest_CreateStack_TestD2Ev
FN:667,667,_ZN19StackTest_Push_Test8TestBodyEv
FN:667,667,_ZN19StackTest_Push_TestC2Ev
FN:667,667,_ZN19StackTest_Push_TestD0Ev
FN:667,667,_ZN19StackTest_Push_TestD2Ev
FN:678,678,_ZN21StackTest_Delete_Test8TestBodyEv
FN:678,678,_ZN21StackTest_Delete_TestC2Ev
FN:678,678,_ZN21StackTest_Delete_TestD0Ev
FN:678,678,_ZN21StackTest_Delete_TestD2Ev
FN:691,691,_ZN25StackTest_SaveToFile_Test8TestBodyEv
FN:691,691,_ZN25StackTest_SaveToFile_TestC2Ev
FN:691,691,_ZN25StackTest_SaveToFile_TestD0Ev
FN:691,691,_ZN25StackTest_SaveToFile_TestD2Ev
FN:710,710,_ZN43StackTest_SerializationDeserialization_Test8TestBodyEv
FN:710,710,_ZN43StackTest_SerializationDeserialization_TestC2Ev
FN:710,710,_ZN43StackTest_SerializationDeserialization_TestD0Ev
FN:710,710,_ZN43StackTest_SerializationDeserialization_TestD2Ev
FN:727,727,_ZN32AVLTreeTest_InsertAndSearch_Test8TestBodyEv
FN:727,727,_ZN32AVLTreeTest_InsertAndSearch_TestC2Ev
FN:727,727,_ZN32AVLTreeTest_InsertAndSearch_TestD0Ev
FN:727,727,_ZN32AVLTreeTest_InsertAndSearch_TestD2Ev
FN:740,757,_ZN23AVLTreeTest_Remove_Test8TestBodyEv
FN:740,757,_ZN23AVLTreeTest_Remove_TestC2Ev
FN:740,757,_ZN23AVLTreeTest_Remove_TestD0Ev
FN:740,757,_ZN23AVLTreeTest_Remove_TestD2Ev
FN:760,776,_ZN37AVLTreeTest_SerializeDeserialize_Test8TestBodyEv
FN:760,776,_ZN37AVLTreeTest_SerializeDeserialize_TestC2Ev
FN:760,776,_ZN37AVLTreeTest_SerializeDeserialize_TestD0Ev
FN:760,776,_ZN37AVLTreeTest_SerializeDeserialize_TestD2Ev
FN:779,784,_ZN26AVLTreeTest_EmptyTree_Test8TestBodyEv
FN:779,784,_ZN26AVLTreeTest_EmptyTree_TestC2Ev
FN:779,784,_ZN26AVLTreeTest_EmptyTree_TestD0Ev
FN:779,784,_ZN26AVLTreeTest_EmptyTree_TestD2Ev
FN:78,78,_ZN21StrArrayTest_Get_Test8TestBodyEv
FN:78,78,_ZN21StrArrayTest_Get_TestC2Ev
FN:78,78,_ZN21StrArrayTest_Get_TestD0Ev
FN:78,78,_ZN21StrArrayTest_Get_TestD2Ev
FN:787,787,_ZN33AVLTreeTest_InsertDuplicates_Test8TestBodyEv
FN:787,787,_ZN33AVLTreeTest_InsertDuplicates_TestC2Ev
FN:787,787,_ZN33AVLTreeTest_InsertDuplicates_TestD0Ev
FN:787,787,_ZN33AVLTreeTest_InsertDuplicates_TestD2Ev
FN:798,798,_ZN34AVLTreeTest_RemoveNonExistent_Test8TestBodyEv
FN:798,798,_ZN34AVLTreeTest_RemoveNonExistent_TestC2Ev
FN:798,798,_ZN34AVLTreeTest_RemoveNonExistent_TestD0Ev
FN:798,798,_ZN34AVLTreeTest_RemoveNonExistent_TestD2Ev
FN:810,810,_ZN46AVLTreeTest_SerializeDeserializeEmptyTree_Test8TestBodyEv
FN:810,810,_ZN46AVLTreeTest_SerializeDeserializeEmptyTree_TestC2Ev
FN:810,810,_ZN46AVLTreeTest_SerializeDeserializeEmptyTree_TestD0Ev
FN:810,810,_ZN46AVLTreeTest_SerializeDeserializeEmptyTree_TestD2Ev
FN:822,822,_ZN54AVLTreeTest_SerializeDeserializeSingleElementTree_Test8TestBodyEv
FN:822,822,_ZN54AVLTreeTest_SerializeDeserializeSingleElementTree_TestC2Ev
FN:822,822,_ZN54AVLTreeTest_SerializeDeserializeSingleElementTree_TestD0Ev
FN:822,822,_ZN54AVLTreeTest_SerializeDeserializeSingleElementTree_TestD2Ev
FN:835,838,main
FN:91,91,_ZN25StrArrayTest_Replace_Test8TestBodyEv
FN:91,91,_ZN25StrArrayTest_Replace_TestC2Ev
FN:91,91,_ZN25StrArrayTest_Replace_TestD0Ev
FN:91,91,_ZN25StrArrayTest_Replace_TestD2Ev
FNDA:2,_ZN24StrArrayTest_Delete_Test8TestBodyEv
FNDA:2,_ZN24StrArrayTest_Delete_TestC2Ev
FNDA:2,_ZN24StrArrayTest_Delete_TestD0Ev
FNDA:2,_ZN24StrArrayTest_Delete_TestD2Ev
FNDA:2,_ZN28StrArrayTest_SaveToFile_Test8TestBodyEv
FNDA:2,_ZN28StrArrayTest_SaveToFile_TestC2Ev
FNDA:2,_ZN28StrArrayTest_SaveToFile_TestD0Ev
FNDA:2,_ZN28StrArrayTest_SaveToFile_TestD2Ev
FNDA:2,_ZN32StrArrayTest_Initialization_Test8TestBodyEv
FNDA:2,_ZN32StrArrayTest_Initialization_TestC2Ev
FNDA:2,_ZN32StrArrayTest_Initialization_TestD0Ev
FNDA:2,_ZN32StrArrayTest_Initialization_TestD2Ev
FNDA:2,_ZN38StrArrayTest_SerializeDeserialize_Test8TestBodyEv
FNDA:2,_ZN38StrArrayTest_SerializeDeserialize_TestC2Ev
FNDA:2,_ZN38StrArrayTest_SerializeDeserialize_TestD0Ev
FNDA:2,_ZN38StrArrayTest_SerializeDeserialize_TestD2Ev
FNDA:2,_ZN34HashTableTest_CreateHashTable_Test8TestBodyEv
FNDA:2,_ZN34HashTableTest_CreateHashTable_TestC2Ev
FNDA:2,_ZN34HashTableTest_CreateHashTable_TestD0Ev
FNDA:2,_ZN34HashTableTest_CreateHashTable_TestD2Ev
FNDA:2,_ZN34HashTableTest_PushExistingKey_Test8TestBodyEv
FNDA:2,_ZN34HashTableTest_PushExistingKey_TestC2Ev
FNDA:2,_ZN34HashTableTest_PushExistingKey_TestD0Ev
FNDA:2,_ZN34HashTableTest_PushExistingKey_TestD2Ev
FNDA:2,_ZN30HashTableTest_PushSuccess_Test8TestBodyEv
FNDA:2,_ZN30HashTableTest_PushSuccess_TestC2Ev
FNDA:2,_ZN30HashTableTest_PushSuccess_TestD0Ev
FNDA:2,_ZN30HashTableTest_PushSuccess_TestD2Ev
FNDA:2,_ZN33HashTableTest_GetKeyNotFound_Test8TestBodyEv
FNDA:2,_ZN33HashTableTest_GetKeyNotFound_TestC2Ev
FNDA:2,_ZN33HashTableTest_GetKeyNotFound_TestD0Ev
FNDA:2,_ZN33HashTableTest_GetKeyNotFound_TestD2Ev
FNDA:2,_ZN30HashTableTest_GetKeyFound_Test8TestBodyEv
FNDA:2,_ZN30HashTableTest_GetKeyFound_TestC2Ev
FNDA:2,_ZN30HashTableTest_GetKeyFound_TestD0Ev
FNDA:2,_ZN30HashTableTest_GetKeyFound_TestD2Ev
FNDA:2,_ZN35HashTableTest_DeleteKeySuccess_Test8TestBodyEv
FNDA:2,_ZN35HashTableTest_DeleteKeySuccess_TestC2Ev
FNDA:2,_ZN35HashTableTest_DeleteKeySuccess_TestD0Ev
FNDA:2,_ZN35HashTableTest_DeleteKeySuccess_TestD2Ev
FNDA:2,_ZN36HashTableTest_DeleteKeyNotFound_Test8TestBodyEv
FNDA:2,_ZN36HashTableTest_DeleteKeyNotFound_TestC2Ev
FNDA:2,_ZN36HashTableTest_DeleteKeyNotFound_TestD0Ev
FNDA:2,_ZN36HashTableTest_DeleteKeyNotFound_TestD2Ev
FNDA:2,_ZN22StrArrayTest_Push_Test8TestBodyEv
FNDA:2,_ZN22StrArrayTest_Push_TestC2Ev
FNDA:2,_ZN22StrArrayTest_Push_TestD0Ev
FNDA:2,_ZN22StrArrayTest_Push_TestD2Ev
FNDA:2,_ZN38HashTableTest_SaveAndLoadFromFile_Test8TestBodyEv
FNDA:2,_ZN38HashTableTest_SaveAndLoadFromFile_TestC2Ev
FNDA:2,_ZN38HashTableTest_SaveAndLoadFromFile_TestD0Ev
FNDA:2,_ZN38HashTableTest_SaveAndLoadFromFile_TestD2Ev
FNDA:2,_ZN42HashTableTest_LargeNumberOfOperations_Test8TestBodyEv
FNDA:2,_ZN42HashTableTest_LargeNumberOfOperations_TestC2Ev
FNDA:2,_ZN42HashTableTest_LargeNumberOfOperations_TestD0Ev
FNDA:2,_ZN42HashTableTest_LargeNumberOfOperations_TestD2Ev
FNDA:2,_ZN35HashTableTest_SaveToBinaryFile_Test8TestBodyEv
FNDA:2,_ZN35HashTableTest_SaveToBinaryFile_TestC2Ev
FNDA:2,_ZN35HashTableTest_SaveToBinaryFile_TestD0Ev
FNDA:2,_ZN35HashTableTest_SaveToBinaryFile_TestD2Ev
FNDA:2,_ZN37HashTableTest_LoadFromBinaryFile_Test8TestBodyEv
FNDA:2,_ZN37HashTableTest_LoadFromBinaryFile_TestC2Ev
FNDA:2,_ZN37HashTableTest_LoadFromBinaryFile_TestD0Ev
FNDA:2,_ZN37HashTableTest_LoadFromBinaryFile_TestD2Ev
FNDA:2,_ZN25ListDTest_CreateList_Test8TestBodyEv
FNDA:2,_ZN25ListDTest_CreateList_TestC2Ev
FNDA:2,_ZN25ListDTest_CreateList_TestD0Ev
FNDA:2,_ZN25ListDTest_CreateList_TestD2Ev
FNDA:2,_ZN23ListDTest_PushHead_Test8TestBodyEv
FNDA:2,_ZN23ListDTest_PushHead_TestC2Ev
FNDA:2,_ZN23ListDTest_PushHead_TestD0Ev
FNDA:2,_ZN23ListDTest_PushHead_TestD2Ev
FNDA:2,_ZN23ListDTest_PushTail_Test8TestBodyEv
FNDA:2,_ZN23ListDTest_PushTail_TestC2Ev
FNDA:2,_ZN23ListDTest_PushTail_TestD0Ev
FNDA:2,_ZN23ListDTest_PushTail_TestD2Ev
FNDA:2,_ZN25ListDTest_DeleteHead_Test8TestBodyEv
FNDA:2,_ZN25ListDTest_DeleteHead_TestC2Ev
FNDA:2,_ZN25ListDTest_DeleteHead_TestD0Ev
FNDA:2,_ZN25ListDTest_DeleteHead_TestD2Ev
FNDA:2,_ZN25ListDTest_DeleteTail_Test8TestBodyEv
FNDA:2,_ZN25ListDTest_DeleteTail_TestC2Ev
FNDA:2,_ZN25ListDTest_DeleteTail_TestD0Ev
FNDA:2,_ZN25ListDTest_DeleteTail_TestD2Ev
FNDA:2,_ZN24StrArrayTest_Resize_Test8TestBodyEv
FNDA:2,_ZN24StrArrayTest_Resize_TestC2Ev
FNDA:2,_ZN24StrArrayTest_Resize_TestD0Ev
FNDA:2,_ZN24StrArrayTest_Resize_TestD2Ev
FNDA:2,_ZN26ListDTest_DeleteValue_Test8TestBodyEv
FNDA:2,_ZN26ListDTest_DeleteValue_TestC2Ev
FNDA:2,_ZN26ListDTest_DeleteValue_TestD0Ev
FNDA:2,_ZN26ListDTest_DeleteValue_TestD2Ev
FNDA:2,_ZN24ListDTest_PrintList_Test8TestBodyEv
FNDA:2,_ZN24ListDTest_PrintList_TestC2Ev
FNDA:2,_ZN24ListDTest_PrintList_TestD0Ev
FNDA:2,_ZN24ListDTest_PrintList_TestD2Ev
FNDA:2,_ZN25ListDTest_SaveToFile_Test8TestBodyEv
FNDA:2,_ZN25ListDTest_SaveToFile_TestC2Ev
FNDA:2,_ZN25ListDTest_SaveToFile_TestD0Ev
FNDA:2,_ZN25ListDTest_SaveToFile_TestD2Ev
FNDA:2,_ZN31ListDTest_SaveToBinaryFile_Test8TestBodyEv
FNDA:2,_ZN31ListDTest_SaveToBinaryFile_TestC2Ev
FNDA:2,_ZN31ListDTest_SaveToBinaryFile_TestD0Ev
FNDA:2,_ZN31ListDTest_SaveToBinaryFile_TestD2Ev
FNDA:2,_ZN33ListDTest_LoadFromBinaryFile_Test8TestBodyEv
FNDA:2,_ZN33ListDTest_LoadFromBinaryFile_TestC2Ev
FNDA:2,_ZN33ListDTest_LoadFromBinaryFile_TestD0Ev
FNDA:2,_ZN33ListDTest_LoadFromBinaryFile_TestD2Ev
FNDA:2,_ZN23StrArrayTest_Pushi_Test8TestBodyEv
FNDA:2,_ZN23StrArrayTest_Pushi_TestC2Ev
FNDA:2,_ZN23StrArrayTest_Pushi_TestD0Ev
FNDA:2,_ZN23StrArrayTest_Pushi_TestD2Ev
FNDA:2,_ZN25ListSTest_CreateList_Test8TestBodyEv
FNDA:2,_ZN25ListSTest_CreateList_TestC2Ev
FNDA:2,_ZN25ListSTest_CreateList_TestD0Ev
FNDA:2,_ZN25ListSTest_CreateList_TestD2Ev
FNDA:2,_ZN23ListSTest_PushHead_Test8TestBodyEv
FNDA:2,_ZN23ListSTest_PushHead_TestC2Ev
FNDA:2,_ZN23ListSTest_PushHead_TestD0Ev
FNDA:2,_ZN23ListSTest_PushHead_TestD2Ev
FNDA:2,_ZN23ListSTest_PushTail_Test8TestBodyEv
FNDA:2,_ZN23ListSTest_PushTail_TestC2Ev
FNDA:2,_ZN23ListSTest_PushTail_TestD0Ev
FNDA:2,_ZN23ListSTest_PushTail_TestD2Ev
FNDA:2,_ZN25ListSTest_DeleteHead_Test8TestBodyEv
FNDA:2,_ZN25ListSTest_DeleteHead_TestC2Ev
FNDA:2,_ZN25ListSTest_DeleteHead_TestD0Ev
FNDA:2,_ZN25ListSTest_DeleteHead_TestD2Ev
FNDA:2,_ZN25ListSTest_DeleteTail_Test8TestBodyEv
FNDA:2,_ZN25ListSTest_DeleteTail_TestC2Ev
FNDA:2,_ZN25ListSTest_DeleteTail_TestD0Ev
FNDA:2,_ZN25ListSTest_DeleteTail_TestD2Ev
FNDA:2,_ZN30ListSTest_DelvHeadElement_Test8TestBodyEv
FNDA:2,_ZN30ListSTest_DelvHeadElement_TestC2Ev
FNDA:2,_ZN30ListSTest_DelvHeadElement_TestD0Ev
FNDA:2,_ZN30ListSTest_DelvHeadElement_TestD2Ev
FNDA:2,_ZN36ListSTest_DelhSingleElementList_Test8TestBodyEv
FNDA:2,_ZN36ListSTest_DelhSingleElementList_TestC2Ev
FNDA:2,_ZN36ListSTest_DelhSingleElementList_TestD0Ev
FNDA:2,_ZN36ListSTest_DelhSingleElementList_TestD2Ev
FNDA:2,_ZN28ListSTest_DeltEmptyList_Test8TestBodyEv
FNDA:2,_ZN28ListSTest_DeltEmptyList_TestC2Ev
FNDA:2,_ZN28ListSTest_DeltEmptyList_TestD0Ev
FNDA:2,_ZN28ListSTest_DeltEmptyList_TestD2Ev
FNDA:2,_ZN34ListSTest_DelvElementNotFound_Test8TestBodyEv
FNDA:2,_ZN34ListSTest_DelvElementNotFound_TestC2Ev
FNDA:2,_ZN34ListSTest_DelvElementNotFound_TestD0Ev
FNDA:2,_ZN34ListSTest_DelvElementNotFound_TestD2Ev
FNDA:2,_ZN25ListSTest_SaveToFile_Test8TestBodyEv
FNDA:2,_ZN25ListSTest_SaveToFile_TestC2Ev
FNDA:2,_ZN25ListSTest_SaveToFile_TestD0Ev
FNDA:2,_ZN25ListSTest_SaveToFile_TestD2Ev
FNDA:2,_ZN43ListSTest_SerializationDeserialization_Test8TestBodyEv
FNDA:2,_ZN43ListSTest_SerializationDeserialization_TestC2Ev
FNDA:2,_ZN43ListSTest_SerializationDeserialization_TestD0Ev
FNDA:2,_ZN43ListSTest_SerializationDeserialization_TestD2Ev
FNDA:2,_ZN26QueueTest_CreateQueue_Test8TestBodyEv
FNDA:2,_ZN26QueueTest_CreateQueue_TestC2Ev
FNDA:2,_ZN26QueueTest_CreateQueue_TestD0Ev
FNDA:2,_ZN26QueueTest_CreateQueue_TestD2Ev
FNDA:2,_ZN19QueueTest_Push_Test8TestBodyEv
FNDA:2,_ZN19QueueTest_Push_TestC2Ev
FNDA:2,_ZN19QueueTest_Push_TestD0Ev
FNDA:2,_ZN19QueueTest_Push_TestD2Ev
FNDA:2,_ZN21QueueTest_Delete_Test8TestBodyEv
FNDA:2,_ZN21QueueTest_Delete_TestC2Ev
FNDA:2,_ZN21QueueTest_Delete_TestD0Ev
FNDA:2,_ZN21QueueTest_Delete_TestD2Ev
FNDA:2,_ZN34StrArrayTest_PushiOutOfBounds_Test8TestBodyEv
FNDA:2,_ZN34StrArrayTest_PushiOutOfBounds_TestC2Ev
FNDA:2,_ZN34StrArrayTest_PushiOutOfBounds_TestD0Ev
FNDA:2,_ZN34StrArrayTest_PushiOutOfBounds_TestD2Ev
FNDA:2,_ZN25QueueTest_SaveToFile_Test8TestBodyEv
FNDA:2,_ZN25QueueTest_SaveToFile_TestC2Ev
FNDA:2,_ZN25QueueTest_SaveToFile_TestD0Ev
FNDA:2,_ZN25QueueTest_SaveToFile_TestD2Ev
FNDA:2,_ZN43QueueTest_SerializationDeserialization_Test8TestBodyEv
FNDA:2,_ZN43QueueTest_SerializationDeserialization_TestC2Ev
FNDA:2,_ZN43QueueTest_SerializationDeserialization_TestD0Ev
FNDA:2,_ZN43QueueTest_SerializationDeserialization_TestD2Ev
FNDA:2,_ZN26StackTest_CreateStack_Test8TestBodyEv
FNDA:2,_ZN26StackTest_CreateStack_TestC2Ev
FNDA:2,_ZN26StackTest_CreateStack_TestD0Ev
FNDA:2,_ZN26StackTest_CreateStack_TestD2Ev
FNDA:2,_ZN19StackTest_Push_Test8TestBodyEv
FNDA:2,_ZN19StackTest_Push_TestC2Ev
FNDA:2,_ZN19StackTest_Push_TestD0Ev
FNDA:2,_ZN19StackTest_Push_TestD2Ev
FNDA:2,_ZN21StackTest_Delete_Test8TestBodyEv
FNDA:2,_ZN21StackTest_Delete_TestC2Ev
FNDA:2,_ZN21StackTest_Delete_TestD0Ev
FNDA:2,_ZN21StackTest_Delete_TestD2Ev
FNDA:2,_ZN25StackTest_SaveToFile_Test8TestBodyEv
FNDA:2,_ZN25StackTest_SaveToFile_TestC2Ev
FNDA:2,_ZN25StackTest_SaveToFile_TestD0Ev
FNDA:2,_ZN25StackTest_SaveToFile_TestD2Ev
FNDA:2,_ZN43StackTest_SerializationDeserialization_Test8TestBodyEv
FNDA:2,_ZN43StackTest_SerializationDeserialization_TestC2Ev
FNDA:2,_ZN43StackTest_SerializationDeserialization_TestD0Ev
FNDA:2,_ZN43StackTest_SerializationDeserialization_TestD2Ev
FNDA:2,_ZN32AVLTreeTest_InsertAndSearch_Test8TestBodyEv
FNDA:2,_ZN32AVLTreeTest_InsertAndSearch_TestC2Ev
FNDA:2,_ZN32AVLTreeTest_InsertAndSearch_TestD0Ev
FNDA:2,_ZN32AVLTreeTest_InsertAndSearch_TestD2Ev
FNDA:2,_ZN23AVLTreeTest_Remove_Test8TestBodyEv
FNDA:2,_ZN23AVLTreeTest_Remove_TestC2Ev
FNDA:2,_ZN23AVLTreeTest_Remove_TestD0Ev
FNDA:2,_ZN23AVLTreeTest_Remove_TestD2Ev
FNDA:2,_ZN37AVLTreeTest_SerializeDeserialize_Test8TestBodyEv
FNDA:2,_ZN37AVLTreeTest_SerializeDeserialize_TestC2Ev
FNDA:2,_ZN37AVLTreeTest_SerializeDeserialize_TestD0Ev
FNDA:2,_ZN37AVLTreeTest_SerializeDeserialize_TestD2Ev
FNDA:2,_ZN26AVLTreeTest_EmptyTree_Test8TestBodyEv
FNDA:2,_ZN26AVLTreeTest_EmptyTree_TestC2Ev
FNDA:2,_ZN26AVLTreeTest_EmptyTree_TestD0Ev
FNDA:2,_ZN26AVLTreeTest_EmptyTree_TestD2Ev
FNDA:2,_ZN21StrArrayTest_Get_Test8TestBodyEv
FNDA:2,_ZN21StrArrayTest_Get_TestC2Ev
FNDA:2,_ZN21StrArrayTest_Get_TestD0Ev
FNDA:2,_ZN21StrArrayTest_Get_TestD2Ev
FNDA:2,_ZN33AVLTreeTest_InsertDuplicates_Test8TestBodyEv
FNDA:2,_ZN33AVLTreeTest_InsertDuplicates_TestC2Ev
FNDA:2,_ZN33AVLTreeTest_InsertDuplicates_TestD0Ev
FNDA:2,_ZN33AVLTreeTest_InsertDuplicates_TestD2Ev
FNDA:2,_ZN34AVLTreeTest_RemoveNonExistent_Test8TestBodyEv
FNDA:2,_ZN34AVLTreeTest_RemoveNonExistent_TestC2Ev
FNDA:2,_ZN34AVLTreeTest_RemoveNonExistent_TestD0Ev
FNDA:2,_ZN34AVLTreeTest_RemoveNonExistent_TestD2Ev
FNDA:2,_ZN46AVLTreeTest_SerializeDeserializeEmptyTree_Test8TestBodyEv
FNDA:2,_ZN46AVLTreeTest_SerializeDeserializeEmptyTree_TestC2Ev
FNDA:2,_ZN46AVLTreeTest_SerializeDeserializeEmptyTree_TestD0Ev
FNDA:2,_ZN46AVLTreeTest_SerializeDeserializeEmptyTree_TestD2Ev
FNDA:2,_ZN54AVLTreeTest_SerializeDeserializeSingleElementTree_Test8TestBodyEv
FNDA:2,_ZN54AVLTreeTest_SerializeDeserializeSingleElementTree_TestC2Ev
FNDA:2,_ZN54AVLTreeTest_SerializeDeserializeSingleElementTree_TestD0Ev
FNDA:2,_ZN54AVLTreeTest_SerializeDeserializeSingleElementTree_TestD2Ev
FNDA:2,main
FNDA:2,_ZN25StrArrayTest_Replace_Test8TestBodyEv
FNDA:2,_ZN25StrArrayTest_Replace_TestC2Ev
FNDA:2,_ZN25StrArrayTest_Replace_TestD0Ev
FNDA:2,_ZN25StrArrayTest_Replace_TestD2Ev
FNF:241
FNH:241
DA:13,8
DA:14,2
DA:15,2
DA:16,2
DA:17,2
DA:18,2
DA:21,8
DA:22,2
DA:23,2
DA:24,2
DA:25,2
DA:26,2
DA:27,4
DA:28,2
DA:29,2
DA:30,2
DA:31,2
DA:32,2
DA:35,8
DA:36,2
DA:37,4
DA:38,4
DA:39,2
DA:40,2
DA:41,2
DA:42,2
DA:45,8
DA:46,2
DA:47,4
DA:48,4
DA:49,2
DA:50,2
DA:51,4
DA:52,2
DA:53,2
DA:54,2
DA:55,2
DA:56,2
DA:57,2
DA:58,2
DA:61,8
DA:62,2
DA:63,4
DA:64,2
DA:65,2
DA:66,2
DA:67,2
DA:68,2
DA:69,2
DA:70,4
DA:71,2
DA:72,2
DA:73,2
DA:74,2
DA:75,2
DA:78,8
DA:79,2
DA:80,4
DA:81,2
DA:82,2
DA:83,2
DA:84,2
DA:85,2
DA:86,2
DA:87,2
DA:88,2
DA:91,8
DA:92,2
DA:93,4
DA:94,4
DA:95,2
DA:96,2
DA:97,2
DA:98,2
DA:99,2
DA:102,8
DA:103,2
DA:104,4
DA:105,4
DA:106,2
DA:107,2
DA:108,2
DA:109,4
DA:110,2
DA:111,2
DA:112,2
DA:113,2
DA:114,2
DA:117,8
DA:118,2
DA:119,4
DA:120,4
DA:121,4
DA:122,2
DA:123,2
DA:124,2
DA:125,2
DA:126,2
DA:127,2
DA:128,2
DA:129,2
DA:132,8
DA:133,2
DA:134,4
DA:135,4
DA:136,4
DA:137,4
DA:139,2
DA:141,2
DA:142,2
DA:144,2
DA:145,2
DA:147,10
DA:148,8
DA:149,8
DA:150,8
DA:151,8
DA:152,8
DA:153,8
DA:154,2
DA:159,8
DA:160,2
DA:161,2
DA:162,2
DA:165,8
DA:166,2
DA:167,6
DA:168,2
DA:169,6
DA:170,2
DA:171,2
DA:172,2
DA:175,8
DA:176,2
DA:177,6
DA:178,2
DA:179,4
DA:180,2
DA:181,2
DA:184,8
DA:185,2
DA:186,2
DA:187,4
DA:188,2
DA:191,8
DA:192,2
DA:193,6
DA:194,2
DA:195,4
DA:196,2
DA:197,2
DA:200,8
DA:201,2
DA:202,8
DA:203,4
DA:204,4
DA:205,4
DA:206,2
DA:209,8
DA:210,2
DA:211,6
DA:212,2
DA:215,8
DA:216,2
DA:217,8
DA:218,8
DA:219,2
DA:221,2
DA:222,2
DA:224,2
DA:225,4
DA:226,2
DA:227,4
DA:228,2
DA:229,2
DA:230,2
DA:233,8
DA:234,2
DA:235,2002
DA:236,2000
DA:238,2002
DA:239,2000
DA:240,2000
DA:241,2000
DA:242,2000
DA:243,2002
DA:244,2000
DA:246,2002
DA:247,2000
DA:248,2000
DA:249,2000
DA:250,2
DA:253,8
DA:254,2
DA:255,8
DA:256,2
DA:257,2
DA:259,2
DA:260,2
DA:263,2
DA:266,2
DA:267,2
DA:268,2
DA:269,2
DA:271,2
DA:272,2
DA:273,2
DA:274,2
DA:276,2
DA:277,2
DA:280,8
DA:281,2
DA:282,8
DA:283,2
DA:284,2
DA:286,2
DA:287,2
DA:289,2
DA:290,4
DA:291,2
DA:292,2
DA:293,2
DA:298,8
DA:299,2
DA:300,2
DA:301,2
DA:302,2
DA:305,8
DA:306,2
DA:307,2
DA:308,2
DA:309,2
DA:311,2
DA:312,2
DA:313,2
DA:314,2
DA:315,2
DA:318,8
DA:319,2
DA:320,2
DA:321,2
DA:322,2
DA:324,2
DA:325,2
DA:326,2
DA:327,2
DA:328,2
DA:331,8
DA:332,2
DA:333,2
DA:334,2
DA:335,2
DA:336,2
DA:338,4
DA:339,2
DA:340,2
DA:341,2
DA:342,2
DA:343,2
DA:346,8
DA:347,2
DA:348,2
DA:349,2
DA:350,2
DA:351,2
DA:353,4
DA:354,2
DA:355,2
DA:356,2
DA:357,2
DA:358,2
DA:361,8
DA:362,2
DA:363,4
DA:364,4
DA:365,4
DA:366,2
DA:367,2
DA:368,2
DA:369,2
DA:371,2
DA:372,2
DA:373,4
DA:374,2
DA:375,2
DA:376,2
DA:377,2
DA:378,2
DA:381,8
DA:382,2
DA:383,4
DA:384,4
DA:385,2
DA:387,2
DA:388,2
DA:389,2
DA:390,2
DA:391,2
DA:394,8
DA:395,2
DA:396,4
DA:397,4
DA:398,4
DA:400,2
DA:401,2
DA:403,2
DA:404,2
DA:405,2
DA:406,2
DA:407,2
DA:409,2
DA:410,2
DA:413,8
DA:414,2
DA:415,4
DA:416,2
DA:417,2
DA:419,2
DA:420,2
DA:423,2
DA:426,2
DA:427,2
DA:428,2
DA:429,2
DA:431,2
DA:432,2
DA:433,2
DA:436,8
DA:437,2
DA:438,4
DA:439,2
DA:440,2
DA:442,2
DA:443,2
DA:445,2
DA:446,2
DA:447,2
DA:449,2
DA:450,2
DA:455,8
DA:456,2
DA:457,2
DA:458,2
DA:459,2
DA:462,8
DA:463,2
DA:464,2
DA:465,2
DA:466,2
DA:468,2
DA:469,2
DA:470,2
DA:471,2
DA:472,2
DA:475,8
DA:476,2
DA:477,2
DA:478,2
DA:479,2
DA:481,2
DA:482,2
DA:483,2
DA:484,2
DA:485,2
DA:488,8
DA:489,2
DA:490,2
DA:491,2
DA:492,2
DA:493,2
DA:495,4
DA:496,2
DA:497,2
DA:498,2
DA:499,2
DA:500,2
DA:503,8
DA:504,2
DA:505,2
DA:506,2
DA:507,2
DA:508,2
DA:510,4
DA:511,2
DA:512,2
DA:513,2
DA:514,2
DA:515,2
DA:518,8
DA:519,2
DA:520,4
DA:521,4
DA:522,4
DA:523,2
DA:524,2
DA:527,8
DA:528,2
DA:529,2
DA:530,2
DA:531,2
DA:532,2
DA:533,2
DA:536,8
DA:537,2
DA:538,2
DA:539,2
DA:542,8
DA:543,2
DA:544,4
DA:545,4
DA:546,4
DA:547,2
DA:550,8
DA:551,2
DA:552,4
DA:553,4
DA:554,4
DA:556,2
DA:557,2
DA:559,2
DA:560,2
DA:561,2
DA:562,2
DA:563,2
DA:565,2
DA:566,2
DA:569,8
DA:570,2
DA:571,4
DA:572,2
DA:574,2
DA:575,2
DA:577,2
DA:578,2
DA:579,2
DA:580,2
DA:582,2
DA:583,2
DA:588,8
DA:589,2
DA:590,2
DA:591,2
DA:592,2
DA:595,8
DA:596,2
DA:597,2
DA:598,2
DA:599,2
DA:601,2
DA:602,2
DA:603,2
DA:604,2
DA:605,2
DA:608,8
DA:609,2
DA:610,2
DA:611,2
DA:612,2
DA:613,2
DA:615,4
DA:616,2
DA:617,2
DA:618,2
DA:619,2
DA:620,2
DA:623,8
DA:624,2
DA:625,4
DA:626,4
DA:627,4
DA:629,2
DA:630,2
DA:632,2
DA:633,2
DA:634,2
DA:635,2
DA:636,2
DA:638,2
DA:639,2
DA:642,8
DA:643,2
DA:644,4
DA:645,2
DA:647,2
DA:648,2
DA:650,2
DA:651,2
DA:652,2
DA:653,2
DA:655,2
DA:656,2
DA:661,8
DA:662,2
DA:663,2
DA:664,2
DA:667,8
DA:668,2
DA:669,2
DA:670,2
DA:672,2
DA:673,2
DA:674,2
DA:675,2
DA:678,8
DA:679,2
DA:680,2
DA:681,2
DA:682,2
DA:684,4
DA:685,2
DA:686,2
DA:687,2
DA:688,2
DA:691,8
DA:692,2
DA:693,4
DA:694,4
DA:695,4
DA:697,2
DA:698,2
DA:700,2
DA:701,2
DA:702,2
DA:703,2
DA:704,2
DA:706,2
DA:707,2
DA:710,8
DA:711,2
DA:712,4
DA:713,2
DA:715,2
DA:716,2
DA:718,2
DA:719,2
DA:721,2
DA:722,2
DA:727,8
DA:728,2
DA:729,2
DA:730,2
DA:731,2
DA:733,2
DA:734,2
DA:735,2
DA:736,2
DA:737,2
DA:740,8
DA:741,2
DA:742,2
DA:743,2
DA:744,2
DA:746,2
DA:747,2
DA:748,2
DA:749,2
DA:751,2
DA:752,2
DA:753,2
DA:755,2
DA:756,2
DA:757,2
DA:760,8
DA:761,2
DA:762,2
DA:763,2
DA:764,2
DA:766,2
DA:767,2
DA:769,2
DA:770,2
DA:772,2
DA:773,2
DA:774,2
DA:775,2
DA:776,2
DA:779,8
DA:780,2
DA:781,2
DA:782,2
DA:783,2
DA:784,2
DA:787,8
DA:788,2
DA:789,2
DA:790,2
DA:791,2
DA:793,2
DA:794,2
DA:795,2
DA:798,8
DA:799,2
DA:800,2
DA:801,2
DA:803,2
DA:804,2
DA:805,2
DA:806,2
DA:807,2
DA:810,8
DA:811,2
DA:812,2
DA:813,2
DA:815,2
DA:816,2
DA:818,2
DA:819,2
DA:822,8
DA:823,2
DA:824,2
DA:825,2
DA:826,2
DA:828,2
DA:829,2
DA:831,2
DA:832,2
DA:833,2
DA:835,2
DA:836,2
DA:837,2
LF:620
LH:620
end_of_record
TN:
SF:/usr/include/c++/14/bits/allocator.h
FNF:0
FNH:0
DA:161,322
DA:182,322
LF:2
LH:2
end_of_record
TN:
SF:/usr/include/c++/14/bits/basic_string.h
FN:3719,3721,_ZStplIcSt11char_traitsIcESaIcEENSt7__cxx1112basic_stringIT_T0_T1_EEPKS5_OS8_
FN:3755,3761,_ZSteqIcSt11char_traitsIcESaIcEEbRKNSt7__cxx1112basic_stringIT_T0_T1_EESA_
FN:3772,3777,_ZSteqIcSt11char_traitsIcESaIcEEbRKNSt7__cxx1112basic_stringIT_T0_T1_EEPKS5_
FN:3833,3836,_ZStneIcSt11char_traitsIcESaIcEEbRKNSt7__cxx1112basic_stringIT_T0_T1_EESA_
FN:3860,3862,_ZStneIcSt11char_traitsIcESaIcEEbRKNSt7__cxx1112basic_stringIT_T0_T1_EEPKS5_
FN:4240,4255,_ZNSt7__cxx119to_stringEi
FN:4249,4253,_ZZNSt7__cxx119to_stringEiENKUlPcmE_clES0_m
FN:646,655,_ZNSt7__cxx1112basic_stringIcSt11char_traitsIcESaIcEEC2IS3_EEPKcRKS3_
FN:669,671,_ZNSt7__cxx1112basic_stringIcSt11char_traitsIcESaIcEEC2IS3_EEmcRKS3_
FN:800,801,_ZNSt7__cxx1112basic_stringIcSt11char_traitsIcESaIcEEC2ISt17basic_string_viewIcS2_EvEERKT_RKS3_
FNDA:12000,_ZStplIcSt11char_traitsIcESaIcEENSt7__cxx1112basic_stringIT_T0_T1_EEPKS5_OS8_
FNDA:33706,_ZSteqIcSt11char_traitsIcESaIcEEbRKNSt7__cxx1112basic_stringIT_T0_T1_EESA_
FNDA:172,_ZSteqIcSt11char_traitsIcESaIcEEbRKNSt7__cxx1112basic_stringIT_T0_T1_EEPKS5_
FNDA:10,_ZStneIcSt11char_traitsIcESaIcEEbRKNSt7__cxx1112basic_stringIT_T0_T1_EESA_
FNDA:2,_ZStneIcSt11char_traitsIcESaIcEEbRKNSt7__cxx1112basic_stringIT_T0_T1_EEPKS5_
FNDA:12000,_ZNSt7__cxx119to_stringEi
FNDA:12000,_ZZNSt7__cxx119to_stringEiENKUlPcmE_clES0_m
FNDA:540,_ZNSt7__cxx1112basic_stringIcSt11char_traitsIcESaIcEEC2IS3_EEPKcRKS3_
FNDA:12,_ZNSt7__cxx1112basic_stringIcSt11char_traitsIcESaIcEEC2IS3_EEmcRKS3_
FNDA:10,_ZNSt7__cxx1112basic_stringIcSt11char_traitsIcESaIcEEC2ISt17basic_string_viewIcS2_EvEERKT_RKS3_
FNF:10
FNH:10
DA:360,526
DA:646,540
DA:647,540
DA:650,540
DA:651,0
DA:653,540
DA:654,540
DA:655,540
DA:669,12
DA:670,12
DA:671,12
DA:800,10
DA:801,10
DA:3719,12000
DA:3721,12000
DA:3755,33706
DA:3759,33706
DA:3760,33706
DA:3772,172
DA:3775,172
DA:3776,172
DA:3833,10
DA:3836,10
DA:3860,2
DA:3862,2
DA:4240,12000
DA:4245,12000
DA:4246,12000
DA:4247,12000
DA:4248,12000
DA:4249,12000
DA:4250,12000
DA:4251,12000
DA:4252,12000
DA:4254,12000
LF:35
LH:34
end_of_record
TN:
SF:/usr/include/c++/14/bits/basic_string.tcc
FN:221,252,_ZNSt7__cxx1112basic_stringIcSt11char_traitsIcESaIcEE12_M_constructIPKcEEvT_S8_St20forward_iterator_tag
FN:221,252,_ZNSt7__cxx1112basic_stringIcSt11char_traitsIcESaIcEE12_M_constructIPcEEvT_S7_St20forward_iterator_tag
FN:239,239,_ZZNSt7__cxx1112basic_stringIcSt11char_traitsIcESaIcEE12_M_constructIPKcEEvT_S8_St20forward_iterator_tagEN6_GuardC2EPS4_
FN:239,239,_ZZNSt7__cxx1112basic_stringIcSt11char_traitsIcESaIcEE12_M_constructIPcEEvT_S7_St20forward_iterator_tagEN6_GuardC2EPS4_
FN:242,242,_ZZNSt7__cxx1112basic_stringIcSt11char_traitsIcESaIcEE12_M_constructIPKcEEvT_S8_St20forward_iterator_tagEN6_GuardD2Ev
FN:242,242,_ZZNSt7__cxx1112basic_stringIcSt11char_traitsIcESaIcEE12_M_constructIPcEEvT_S7_St20forward_iterator_tagEN6_GuardD2Ev
FN:583,613,_ZNSt7__cxx1112basic_stringIcSt11char_traitsIcESaIcEE22__resize_and_overwriteIZNS_9to_stringEiEUlPcmE_EEvmT_
FN:597,597,_ZZNSt7__cxx1112basic_stringIcSt11char_traitsIcESaIcEE22__resize_and_overwriteIZNS_9to_stringEiEUlPcmE_EEvmT_EN11_TerminatorD2Ev
FNDA:548,_ZNSt7__cxx1112basic_stringIcSt11char_traitsIcESaIcEE12_M_constructIPKcEEvT_S8_St20forward_iterator_tag
FNDA:0,_ZNSt7__cxx1112basic_stringIcSt11char_traitsIcESaIcEE12_M_constructIPcEEvT_S7_St20forward_iterator_tag
FNDA:548,_ZZNSt7__cxx1112basic_stringIcSt11char_traitsIcESaIcEE12_M_constructIPKcEEvT_S8_St20forward_iterator_tagEN6_GuardC2EPS4_
FNDA:0,_ZZNSt7__cxx1112basic_stringIcSt11char_traitsIcESaIcEE12_M_constructIPcEEvT_S7_St20forward_iterator_tagEN6_GuardC2EPS4_
FNDA:548,_ZZNSt7__cxx1112basic_stringIcSt11char_traitsIcESaIcEE12_M_constructIPKcEEvT_S8_St20forward_iterator_tagEN6_GuardD2Ev
FNDA:0,_ZZNSt7__cxx1112basic_stringIcSt11char_traitsIcESaIcEE12_M_constructIPcEEvT_S7_St20forward_iterator_tagEN6_GuardD2Ev
FNDA:12000,_ZNSt7__cxx1112basic_stringIcSt11char_traitsIcESaIcEE22__resize_and_overwriteIZNS_9to_stringEiEUlPcmE_EEvmT_
FNDA:12000,_ZZNSt7__cxx1112basic_stringIcSt11char_traitsIcESaIcEE22__resize_and_overwriteIZNS_9to_stringEiEUlPcmE_EEvmT_EN11_TerminatorD2Ev
FNF:8
FNH:5
DA:221,548
DA:225,548
DA:227,548
DA:229,22
DA:230,22
DA:239,548
DA:242,548
DA:245,548
DA:247,548
DA:249,548
DA:251,548
DA:252,548
DA:583,12000
DA:590,12000
DA:591,12000
DA:597,12000
DA:601,12000
DA:602,12000
DA:610,12000
DA:611,12000
DA:612,0
DA:613,12000
LF:22
LH:21
end_of_record
TN:
SF:/usr/include/c++/14/bits/char_traits.h
FN:136,137,_ZN9__gnu_cxx11char_traitsIcE2eqERKcS3_
FN:199,206,_ZN9__gnu_cxx11char_traitsIcE6lengthEPKc
FN:358,363,_ZNSt11char_traitsIcE2ltERKcS2_
FN:366,382,_ZNSt11char_traitsIcE7compareEPKcS2_m
FN:385,392,_ZNSt11char_traitsIcE6lengthEPKc
FN:419,428,_ZNSt11char_traitsIcE4copyEPcPKcm
FNDA:0,_ZN9__gnu_cxx11char_traitsIcE2eqERKcS3_
FNDA:0,_ZN9__gnu_cxx11char_traitsIcE6lengthEPKc
FNDA:0,_ZNSt11char_traitsIcE2ltERKcS2_
FNDA:28644,_ZNSt11char_traitsIcE7compareEPKcS2_m
FNDA:718,_ZNSt11char_traitsIcE6lengthEPKc
FNDA:0,_ZNSt11char_traitsIcE4copyEPcPKcm
FNF:6
FNH:2
DA:136,0
DA:137,0
DA:199,0
DA:202,0
DA:203,0
DA:204,0
DA:205,0
DA:358,0
DA:361,0
DA:362,0
DA:366,28644
DA:368,28644
DA:369,0
DA:371,28644
DA:373,0
DA:374,0
DA:375,0
DA:376,0
DA:377,0
DA:378,0
DA:381,28644
DA:385,718
DA:388,718
DA:389,0
DA:391,718
DA:419,0
DA:421,0
DA:422,0
DA:427,0
LF:29
LH:7
end_of_record
TN:
SF:/usr/include/c++/14/bits/charconv.h
FN:55,74,_ZNSt8__detail14__to_chars_lenIjEEjT_i
FN:81,110,_ZNSt8__detail18__to_chars_10_implIjEEvPcjT_
FNDA:12000,_ZNSt8__detail14__to_chars_lenIjEEjT_i
FNDA:12000,_ZNSt8__detail18__to_chars_10_implIjEEvPcjT_
FNF:2
FNH:2
DA:55,12000
DA:61,12000
DA:62,12000
DA:63,12000
DA:64,12000
DA:67,12000
DA:68,11880
DA:69,10800
DA:70,0
DA:71,0
DA:72,0
DA:81,12000
DA:87,12000
DA:93,12000
DA:94,22800
DA:96,10800
DA:97,10800
DA:98,10800
DA:99,10800
DA:100,10800
DA:102,12000
DA:104,1080
DA:105,1080
DA:106,1080
DA:109,10920
DA:110,12000
LF:26
LH:23
end_of_record
TN:
SF:/usr/include/c++/14/bits/fs_path.h
FN:183,185,_ZNSt10filesystem7__cxx118__detail17__effective_rangeIcSt11char_traitsIcESaIcEEESt17basic_string_viewIT_S3_IS7_EERKNSt7__cxx1112basic_stringIS7_T0_T1_EE
FN:196,214,_ZNSt10filesystem7__cxx118__detail17__effective_rangeIA23_cEEDaRKT_
FN:330,332,_ZNSt10filesystem7__cxx114pathC2IA23_cS1_EERKT_NS1_6formatE
FN:330,332,_ZNSt10filesystem7__cxx114pathC2INSt7__cxx1112basic_stringIcSt11char_traitsIcESaIcEEES1_EERKT_NS1_6formatE
FN:355,355,_ZNSt10filesystem7__cxx114pathD2Ev
FN:618,633,_ZNSt10filesystem7__cxx114path10_S_convertISt17basic_string_viewIcSt11char_traitsIcEEEEDaT_
FN:689,689,_ZNSt10filesystem7__cxx114path5_ListD2Ev
FNDA:4,_ZNSt10filesystem7__cxx118__detail17__effective_rangeIcSt11char_traitsIcESaIcEEESt17basic_string_viewIT_S3_IS7_EERKNSt7__cxx1112basic_stringIS7_T0_T1_EE
FNDA:6,_ZNSt10filesystem7__cxx118__detail17__effective_rangeIA23_cEEDaRKT_
FNDA:6,_ZNSt10filesystem7__cxx114pathC2IA23_cS1_EERKT_NS1_6formatE
FNDA:4,_ZNSt10filesystem7__cxx114pathC2INSt7__cxx1112basic_stringIcSt11char_traitsIcESaIcEEES1_EERKT_NS1_6formatE
FNDA:10,_ZNSt10filesystem7__cxx114pathD2Ev
FNDA:10,_ZNSt10filesystem7__cxx114path10_S_convertISt17basic_string_viewIcSt11char_traitsIcEEEEDaT_
FNDA:10,_ZNSt10filesystem7__cxx114path5_ListD2Ev
FNF:7
FNH:7
DA:183,4
DA:185,4
DA:196,6
DA:203,6
DA:330,10
DA:331,20
DA:332,10
DA:355,10
DA:618,10
DA:622,10
DA:689,10
LF:11
LH:11
end_of_record
TN:
SF:/usr/include/c++/14/bits/move.h
FN:126,127,_ZSt4moveIRNSt7__cxx1112basic_stringIcSt11char_traitsIcESaIcEEEEONSt16remove_referenceIT_E4typeEOS8_
FN:126,127,_ZSt4moveIRPNSt10filesystem7__cxx114path5_List5_ImplEEONSt16remove_referenceIT_E4typeEOS8_
FN:126,127,_ZSt4moveIRPNSt7__cxx1112basic_stringIcSt11char_traitsIcESaIcEEEEONSt16remove_referenceIT_E4typeEOS9_
FN:126,127,_ZSt4moveIRPNSt7__cxx1118basic_stringstreamIcSt11char_traitsIcESaIcEEEEONSt16remove_referenceIT_E4typeEOS9_
FN:126,127,_ZSt4moveIRSaIcEEONSt16remove_referenceIT_E4typeEOS3_
FN:126,127,_ZSt4moveIRZNSt7__cxx119to_stringEiEUlPcmE_EONSt16remove_referenceIT_E4typeEOS5_
FN:70,71,_ZSt7forwardISt14default_deleteINSt7__cxx1112basic_stringIcSt11char_traitsIcESaIcEEEEEOT_RNSt16remove_referenceIS8_E4typeE
FNDA:12120,_ZSt4moveIRNSt7__cxx1112basic_stringIcSt11char_traitsIcESaIcEEEEONSt16remove_referenceIT_E4typeEOS8_
FNDA:10,_ZSt4moveIRPNSt10filesystem7__cxx114path5_List5_ImplEEONSt16remove_referenceIT_E4typeEOS8_
FNDA:0,_ZSt4moveIRPNSt7__cxx1112basic_stringIcSt11char_traitsIcESaIcEEEEONSt16remove_referenceIT_E4typeEOS9_
FNDA:0,_ZSt4moveIRPNSt7__cxx1118basic_stringstreamIcSt11char_traitsIcESaIcEEEEONSt16remove_referenceIT_E4typeEOS9_
FNDA:0,_ZSt4moveIRSaIcEEONSt16remove_referenceIT_E4typeEOS3_
FNDA:12000,_ZSt4moveIRZNSt7__cxx119to_stringEiEUlPcmE_EONSt16remove_referenceIT_E4typeEOS5_
FNDA:0,_ZSt7forwardISt14default_deleteINSt7__cxx1112basic_stringIcSt11char_traitsIcESaIcEEEEEOT_RNSt16remove_referenceIS8_E4typeE
FNF:7
FNH:3
DA:70,0
DA:71,0
DA:126,24130
DA:127,24130
LF:4
LH:2
end_of_record
TN:
SF:/usr/include/c++/14/bits/new_allocator.h
FN:104,104,_ZNSt15__new_allocatorIcED2Ev
FNDA:562,_ZNSt15__new_allocatorIcED2Ev
FNF:1
FNH:1
DA:88,322
DA:104,562
LF:2
LH:2
end_of_record
TN:
SF:/usr/include/c++/14/bits/stl_algobase.h
FN:257,265,_ZSt3maxIiERKT_S2_S2_
FNDA:44,_ZSt3maxIiERKT_S2_S2_
FNF:1
FNH:1
DA:257,44
DA:262,44
DA:263,22
DA:264,22
LF:4
LH:4
end_of_record
TN:
SF:/usr/include/c++/14/bits/stl_iterator.h
FN:1090,1091,_ZNK9__gnu_cxx17__normal_iteratorIPKcNSt7__cxx1112basic_stringIcSt11char_traitsIcESaIcEEEEdeEv
FN:1100,1104,_ZN9__gnu_cxx17__normal_iteratorIPKcNSt7__cxx1112basic_stringIcSt11char_traitsIcESaIcEEEEppEv
FN:1153,1154,_ZNK9__gnu_cxx17__normal_iteratorIPKcNSt7__cxx1112basic_stringIcSt11char_traitsIcESaIcEEEE4baseEv
FN:1232,1235,_ZN9__gnu_cxxneIPKcNSt7__cxx1112basic_stringIcSt11char_traitsIcESaIcEEEEEbRKNS_17__normal_iteratorIT_T0_EESE_
FNDA:47288,_ZNK9__gnu_cxx17__normal_iteratorIPKcNSt7__cxx1112basic_stringIcSt11char_traitsIcESaIcEEEEdeEv
FNDA:47288,_ZN9__gnu_cxx17__normal_iteratorIPKcNSt7__cxx1112basic_stringIcSt11char_traitsIcESaIcEEEEppEv
FNDA:110660,_ZNK9__gnu_cxx17__normal_iteratorIPKcNSt7__cxx1112basic_stringIcSt11char_traitsIcESaIcEEEE4baseEv
FNDA:55330,_ZN9__gnu_cxxneIPKcNSt7__cxx1112basic_stringIcSt11char_traitsIcESaIcEEEEEbRKNS_17__normal_iteratorIT_T0_EESE_
FNF:4
FNH:4
DA:1090,47288
DA:1091,47288
DA:1100,47288
DA:1102,47288
DA:1103,47288
DA:1153,110660
DA:1154,110660
DA:1232,55330
DA:1235,55330
LF:9
LH:9
end_of_record
TN:
SF:/usr/include/c++/14/bits/stl_iterator_base_funcs.h
FNF:0
FNH:0
DA:106,548
DA:151,1096
DA:152,1096
LF:3
LH:3
end_of_record
TN:
SF:/usr/include/c++/14/bits/stl_iterator_base_types.h
FNF:0
FNH:0
DA:240,548
LF:1
LH:1
end_of_record
TN:
SF:/usr/include/c++/14/bits/unique_ptr.h
FN:1075,1076,_ZSt11make_uniqueINSt7__cxx1112basic_stringIcSt11char_traitsIcESaIcEEEJEENSt8__detail9_MakeUniqIT_E15__single_objectEDpOT0_
FN:168,168,_ZNSt15__uniq_ptr_implINSt7__cxx1112basic_stringIcSt11char_traitsIcESaIcEEESt14default_deleteIS5_EEC2Ev
FN:170,170,_ZNSt15__uniq_ptr_implINSt7__cxx1112basic_stringIcSt11char_traitsIcESaIcEEESt14default_deleteIS5_EEC2EPS5_
FN:183,188,_ZNSt15__uniq_ptr_implINSt7__cxx1112basic_stringIcSt11char_traitsIcESaIcEEESt14default_deleteIS5_EEaSEOS8_
FN:191,191,_ZNSt15__uniq_ptr_implINSt10filesystem7__cxx114path5_List5_ImplENS3_13_Impl_deleterEE6_M_ptrEv
FN:191,191,_ZNSt15__uniq_ptr_implINSt7__cxx1112basic_stringIcSt11char_traitsIcESaIcEEESt14default_deleteIS5_EE6_M_ptrEv
FN:191,191,_ZNSt15__uniq_ptr_implINSt7__cxx1118basic_stringstreamIcSt11char_traitsIcESaIcEEESt14default_deleteIS5_EE6_M_ptrEv
FN:193,193,_ZNKSt15__uniq_ptr_implINSt7__cxx1112basic_stringIcSt11char_traitsIcESaIcEEESt14default_deleteIS5_EE6_M_ptrEv
FN:193,193,_ZNKSt15__uniq_ptr_implINSt7__cxx1118basic_stringstreamIcSt11char_traitsIcESaIcEEESt14default_deleteIS5_EE6_M_ptrEv
FN:195,195,_ZNSt15__uniq_ptr_implINSt10filesystem7__cxx114path5_List5_ImplENS3_13_Impl_deleterEE10_M_deleterEv
FN:195,195,_ZNSt15__uniq_ptr_implINSt7__cxx1112basic_stringIcSt11char_traitsIcESaIcEEESt14default_deleteIS5_EE10_M_deleterEv
FN:195,195,_ZNSt15__uniq_ptr_implINSt7__cxx1118basic_stringstreamIcSt11char_traitsIcESaIcEEESt14default_deleteIS5_EE10_M_deleterEv
FN:200,206,_ZNSt15__uniq_ptr_implINSt7__cxx1112basic_stringIcSt11char_traitsIcESaIcEEESt14default_deleteIS5_EE5resetEPS5_
FN:209,214,_ZNSt15__uniq_ptr_implINSt7__cxx1112basic_stringIcSt11char_traitsIcESaIcEEESt14default_deleteIS5_EE7releaseEv
FN:237,237,_ZNSt15__uniq_ptr_dataINSt7__cxx1112basic_stringIcSt11char_traitsIcESaIcEEESt14default_deleteIS5_ELb1ELb1EEaSEOS8_
FN:298,300,_ZNSt10unique_ptrINSt7__cxx1112basic_stringIcSt11char_traitsIcESaIcEEESt14default_deleteIS5_EEC2IS7_vEEv
FN:311,313,_ZNSt10unique_ptrINSt7__cxx1112basic_stringIcSt11char_traitsIcESaIcEEESt14default_deleteIS5_EEC2IS7_vEEPS5_
FN:392,400,_ZNSt10unique_ptrINSt10filesystem7__cxx114path5_List5_ImplENS3_13_Impl_deleterEED2Ev
FN:392,400,_ZNSt10unique_ptrINSt7__cxx1112basic_stringIcSt11char_traitsIcESaIcEEESt14default_deleteIS5_EED2Ev
FN:392,400,_ZNSt10unique_ptrINSt7__cxx1118basic_stringstreamIcSt11char_traitsIcESaIcEEESt14default_deleteIS5_EED2Ev
FN:408,408,_ZNSt10unique_ptrINSt7__cxx1112basic_stringIcSt11char_traitsIcESaIcEEESt14default_deleteIS5_EEaSEOS8_
FN:445,449,_ZNKSt10unique_ptrINSt7__cxx1118basic_stringstreamIcSt11char_traitsIcESaIcEEESt14default_deleteIS5_EEdeEv
FN:454,458,_ZNKSt10unique_ptrINSt7__cxx1112basic_stringIcSt11char_traitsIcESaIcEEESt14default_deleteIS5_EEptEv
FN:463,464,_ZNKSt10unique_ptrINSt7__cxx1112basic_stringIcSt11char_traitsIcESaIcEEESt14default_deleteIS5_EE3getEv
FN:463,464,_ZNKSt10unique_ptrINSt7__cxx1118basic_stringstreamIcSt11char_traitsIcESaIcEEESt14default_deleteIS5_EE3getEv
FN:469,470,_ZNSt10unique_ptrINSt10filesystem7__cxx114path5_List5_ImplENS3_13_Impl_deleterEE11get_deleterEv
FN:469,470,_ZNSt10unique_ptrINSt7__cxx1112basic_stringIcSt11char_traitsIcESaIcEEESt14default_deleteIS5_EE11get_deleterEv
FN:469,470,_ZNSt10unique_ptrINSt7__cxx1118basic_stringstreamIcSt11char_traitsIcESaIcEEESt14default_deleteIS5_EE11get_deleterEv
FN:480,481,_ZNKSt10unique_ptrINSt7__cxx1112basic_stringIcSt11char_traitsIcESaIcEEESt14default_deleteIS5_EEcvbEv
FN:845,846,_ZSteqINSt7__cxx1112basic_stringIcSt11char_traitsIcESaIcEEESt14default_deleteIS5_EEbRKSt10unique_ptrIT_T0_EDn
FN:869,870,_ZStneINSt7__cxx1112basic_stringIcSt11char_traitsIcESaIcEEESt14default_deleteIS5_EEbRKSt10unique_ptrIT_T0_EDn
FN:87,94,_ZNKSt14default_deleteINSt7__cxx1112basic_stringIcSt11char_traitsIcESaIcEEEEclEPS5_
FN:87,94,_ZNKSt14default_deleteINSt7__cxx1118basic_stringstreamIcSt11char_traitsIcESaIcEEEEclEPS5_
FNDA:0,_ZSt11make_uniqueINSt7__cxx1112basic_stringIcSt11char_traitsIcESaIcEEEJEENSt8__detail9_MakeUniqIT_E15__single_objectEDpOT0_
FNDA:6118,_ZNSt15__uniq_ptr_implINSt7__cxx1112basic_stringIcSt11char_traitsIcESaIcEEESt14default_deleteIS5_EEC2Ev
FNDA:0,_ZNSt15__uniq_ptr_implINSt7__cxx1112basic_stringIcSt11char_traitsIcESaIcEEESt14default_deleteIS5_EEC2EPS5_
FNDA:0,_ZNSt15__uniq_ptr_implINSt7__cxx1112basic_stringIcSt11char_traitsIcESaIcEEESt14default_deleteIS5_EEaSEOS8_
FNDA:10,_ZNSt15__uniq_ptr_implINSt10filesystem7__cxx114path5_List5_ImplENS3_13_Impl_deleterEE6_M_ptrEv
FNDA:8372,_ZNSt15__uniq_ptr_implINSt7__cxx1112basic_stringIcSt11char_traitsIcESaIcEEESt14default_deleteIS5_EE6_M_ptrEv
FNDA:0,_ZNSt15__uniq_ptr_implINSt7__cxx1118basic_stringstreamIcSt11char_traitsIcESaIcEEESt14default_deleteIS5_EE6_M_ptrEv
FNDA:0,_ZNKSt15__uniq_ptr_implINSt7__cxx1112basic_stringIcSt11char_traitsIcESaIcEEESt14default_deleteIS5_EE6_M_ptrEv
FNDA:0,_ZNKSt15__uniq_ptr_implINSt7__cxx1118basic_stringstreamIcSt11char_traitsIcESaIcEEESt14default_deleteIS5_EE6_M_ptrEv
FNDA:10,_ZNSt15__uniq_ptr_implINSt10filesystem7__cxx114path5_List5_ImplENS3_13_Impl_deleterEE10_M_deleterEv
FNDA:0,_ZNSt15__uniq_ptr_implINSt7__cxx1112basic_stringIcSt11char_traitsIcESaIcEEESt14default_deleteIS5_EE10_M_deleterEv
FNDA:0,_ZNSt15__uniq_ptr_implINSt7__cxx1118basic_stringstreamIcSt11char_traitsIcESaIcEEESt14default_deleteIS5_EE10_M_deleterEv
FNDA:0,_ZNSt15__uniq_ptr_implINSt7__cxx1112basic_stringIcSt11char_traitsIcESaIcEEESt14default_deleteIS5_EE5resetEPS5_
FNDA:0,_ZNSt15__uniq_ptr_implINSt7__cxx1112basic_stringIcSt11char_traitsIcESaIcEEESt14default_deleteIS5_EE7releaseEv
FNDA:0,_ZNSt15__uniq_ptr_dataINSt7__cxx1112basic_stringIcSt11char_traitsIcESaIcEEESt14default_deleteIS5_ELb1ELb1EEaSEOS8_
FNDA:6118,_ZNSt10unique_ptrINSt7__cxx1112basic_stringIcSt11char_traitsIcESaIcEEESt14default_deleteIS5_EEC2IS7_vEEv
FNDA:0,_ZNSt10unique_ptrINSt7__cxx1112basic_stringIcSt11char_traitsIcESaIcEEESt14default_deleteIS5_EEC2IS7_vEEPS5_
FNDA:10,_ZNSt10unique_ptrINSt10filesystem7__cxx114path5_List5_ImplENS3_13_Impl_deleterEED2Ev
FNDA:8372,_ZNSt10unique_ptrINSt7__cxx1112basic_stringIcSt11char_traitsIcESaIcEEESt14default_deleteIS5_EED2Ev
FNDA:0,_ZNSt10unique_ptrINSt7__cxx1118basic_stringstreamIcSt11char_traitsIcESaIcEEESt14default_deleteIS5_EED2Ev
FNDA:0,_ZNSt10unique_ptrINSt7__cxx1112basic_stringIcSt11char_traitsIcESaIcEEESt14default_deleteIS5_EEaSEOS8_
FNDA:0,_ZNKSt10unique_ptrINSt7__cxx1118basic_stringstreamIcSt11char_traitsIcESaIcEEESt14default_deleteIS5_EEdeEv
FNDA:0,_ZNKSt10unique_ptrINSt7__cxx1112basic_stringIcSt11char_traitsIcESaIcEEESt14default_deleteIS5_EEptEv
FNDA:0,_ZNKSt10unique_ptrINSt7__cxx1112basic_stringIcSt11char_traitsIcESaIcEEESt14default_deleteIS5_EE3getEv
FNDA:0,_ZNKSt10unique_ptrINSt7__cxx1118basic_stringstreamIcSt11char_traitsIcESaIcEEESt14default_deleteIS5_EE3getEv
FNDA:10,_ZNSt10unique_ptrINSt10filesystem7__cxx114path5_List5_ImplENS3_13_Impl_deleterEE11get_deleterEv
FNDA:0,_ZNSt10unique_ptrINSt7__cxx1112basic_stringIcSt11char_traitsIcESaIcEEESt14default_deleteIS5_EE11get_deleterEv
FNDA:0,_ZNSt10unique_ptrINSt7__cxx1118basic_stringstreamIcSt11char_traitsIcESaIcEEESt14default_deleteIS5_EE11get_deleterEv
FNDA:0,_ZNKSt10unique_ptrINSt7__cxx1112basic_stringIcSt11char_traitsIcESaIcEEESt14default_deleteIS5_EEcvbEv
FNDA:0,_ZSteqINSt7__cxx1112basic_stringIcSt11char_traitsIcESaIcEEESt14default_deleteIS5_EEbRKSt10unique_ptrIT_T0_EDn
FNDA:0,_ZStneINSt7__cxx1112basic_stringIcSt11char_traitsIcESaIcEEESt14default_deleteIS5_EEbRKSt10unique_ptrIT_T0_EDn
FNDA:0,_ZNKSt14default_deleteINSt7__cxx1112basic_stringIcSt11char_traitsIcESaIcEEEEclEPS5_
FNDA:0,_ZNKSt14default_deleteINSt7__cxx1118basic_stringstreamIcSt11char_traitsIcESaIcEEEEclEPS5_
FNF:33
FNH:8
DA:87,0
DA:93,0
DA:94,0
DA:168,6118
DA:170,0
DA:183,0
DA:185,0
DA:186,0
DA:187,0
DA:191,8382
DA:193,0
DA:195,10
DA:200,0
DA:202,0
DA:203,0
DA:204,0
DA:205,0
DA:206,0
DA:209,0
DA:211,0
DA:212,0
DA:213,0
DA:237,0
DA:298,6118
DA:299,6118
DA:300,6118
DA:311,0
DA:312,0
DA:313,0
DA:392,8382
DA:396,8382
DA:397,8382
DA:398,10
DA:399,8382
DA:400,8382
DA:408,0
DA:445,0
DA:447,0
DA:448,0
DA:454,0
DA:457,0
DA:463,0
DA:464,0
DA:469,10
DA:470,10
DA:480,0
DA:481,0
DA:845,0
DA:846,0
DA:869,0
DA:870,0
DA:1075,0
DA:1076,0
LF:53
LH:14
end_of_record
TN:
SF:/usr/include/c++/14/string_view
FN:140,143,_ZNSt17basic_string_viewIcSt11char_traitsIcEEC2EPKc
FN:229,230,_ZNKSt17basic_string_viewIcSt11char_traitsIcEE4sizeEv
FN:289,290,_ZNKSt17basic_string_viewIcSt11char_traitsIcEE4dataEv
FNDA:6,_ZNSt17basic_string_viewIcSt11char_traitsIcEEC2EPKc
FNDA:0,_ZNKSt17basic_string_viewIcSt11char_traitsIcEE4sizeEv
FNDA:0,_ZNKSt17basic_string_viewIcSt11char_traitsIcEE4dataEv
FNF:3
FNH:1
DA:140,6
DA:141,6
DA:142,6
DA:143,6
DA:229,0
DA:230,0
DA:289,0
DA:290,0
LF:8
LH:4
end_of_record
TN:
SF:/usr/include/c++/14/tuple
FN:133,133,_ZNSt10_Head_baseILm1ENSt10filesystem7__cxx114path5_List13_Impl_deleterELb1EE7_M_headERS5_
FN:133,133,_ZNSt10_Head_baseILm1ESt14default_deleteINSt7__cxx1112basic_stringIcSt11char_traitsIcESaIcEEEELb1EE7_M_headERS8_
FN:133,133,_ZNSt10_Head_baseILm1ESt14default_deleteINSt7__cxx1118basic_stringstreamIcSt11char_traitsIcESaIcEEEELb1EE7_M_headERS8_
FN:198,199,_ZNSt10_Head_baseILm0EPNSt7__cxx1112basic_stringIcSt11char_traitsIcESaIcEEELb0EEC2Ev
FN:2089,2091,_ZNSt5tupleIJPNSt7__cxx1112basic_stringIcSt11char_traitsIcESaIcEEESt14default_deleteIS5_EEEC2ILb1ELb1EEEv
FN:242,242,_ZNSt10_Head_baseILm0EPNSt10filesystem7__cxx114path5_List5_ImplELb0EE7_M_headERS6_
FN:242,242,_ZNSt10_Head_baseILm0EPNSt7__cxx1112basic_stringIcSt11char_traitsIcESaIcEEELb0EE7_M_headERS7_
FN:242,242,_ZNSt10_Head_baseILm0EPNSt7__cxx1118basic_stringstreamIcSt11char_traitsIcESaIcEEELb0EE7_M_headERS7_
FN:2427,2428,_ZSt12__get_helperILm0EPNSt10filesystem7__cxx114path5_List5_ImplEJNS3_13_Impl_deleterEEERT0_RSt11_Tuple_implIXT_EJS7_DpT1_EE
FN:2427,2428,_ZSt12__get_helperILm0EPNSt7__cxx1112basic_stringIcSt11char_traitsIcESaIcEEEJSt14default_deleteIS5_EEERT0_RSt11_Tuple_implIXT_EJS9_DpT1_EE
FN:2427,2428,_ZSt12__get_helperILm0EPNSt7__cxx1118basic_stringstreamIcSt11char_traitsIcESaIcEEEJSt14default_deleteIS5_EEERT0_RSt11_Tuple_implIXT_EJS9_DpT1_EE
FN:2427,2428,_ZSt12__get_helperILm1ENSt10filesystem7__cxx114path5_List13_Impl_deleterEJEERT0_RSt11_Tuple_implIXT_EJS5_DpT1_EE
FN:2427,2428,_ZSt12__get_helperILm1ESt14default_deleteINSt7__cxx1112basic_stringIcSt11char_traitsIcESaIcEEEEJEERT0_RSt11_Tuple_implIXT_EJS8_DpT1_EE
FN:2427,2428,_ZSt12__get_helperILm1ESt14default_deleteINSt7__cxx1118basic_stringstreamIcSt11char_traitsIcESaIcEEEEJEERT0_RSt11_Tuple_implIXT_EJS8_DpT1_EE
FN:2432,2433,_ZSt12__get_helperILm0EPNSt7__cxx1112basic_stringIcSt11char_traitsIcESaIcEEEJSt14default_deleteIS5_EEERKT0_RKSt11_Tuple_implIXT_EJS9_DpT1_EE
FN:2432,2433,_ZSt12__get_helperILm0EPNSt7__cxx1118basic_stringstreamIcSt11char_traitsIcESaIcEEEJSt14default_deleteIS5_EEERKT0_RKSt11_Tuple_implIXT_EJS9_DpT1_EE
FN:2443,2444,_ZSt3getILm0EJPNSt10filesystem7__cxx114path5_List5_ImplENS3_13_Impl_deleterEEERNSt13tuple_elementIXT_ESt5tupleIJDpT0_EEE4typeERSB_
FN:2443,2444,_ZSt3getILm0EJPNSt7__cxx1112basic_stringIcSt11char_traitsIcESaIcEEESt14default_deleteIS5_EEERNSt13tuple_elementIXT_ESt5tupleIJDpT0_EEE4typeERSD_
FN:2443,2444,_ZSt3getILm0EJPNSt7__cxx1118basic_stringstreamIcSt11char_traitsIcESaIcEEESt14default_deleteIS5_EEERNSt13tuple_elementIXT_ESt5tupleIJDpT0_EEE4typeERSD_
FN:2443,2444,_ZSt3getILm1EJPNSt10filesystem7__cxx114path5_List5_ImplENS3_13_Impl_deleterEEERNSt13tuple_elementIXT_ESt5tupleIJDpT0_EEE4typeERSB_
FN:2443,2444,_ZSt3getILm1EJPNSt7__cxx1112basic_stringIcSt11char_traitsIcESaIcEEESt14default_deleteIS5_EEERNSt13tuple_elementIXT_ESt5tupleIJDpT0_EEE4typeERSD_
FN:2443,2444,_ZSt3getILm1EJPNSt7__cxx1118basic_stringstreamIcSt11char_traitsIcESaIcEEESt14default_deleteIS5_EEERNSt13tuple_elementIXT_ESt5tupleIJDpT0_EEE4typeERSD_
FN:2449,2450,_ZSt3getILm0EJPNSt7__cxx1112basic_stringIcSt11char_traitsIcESaIcEEESt14default_deleteIS5_EEERKNSt13tuple_elementIXT_ESt5tupleIJDpT0_EEE4typeERKSD_
FN:2449,2450,_ZSt3getILm0EJPNSt7__cxx1118basic_stringstreamIcSt11char_traitsIcESaIcEEESt14default_deleteIS5_EEERKNSt13tuple_elementIXT_ESt5tupleIJDpT0_EEE4typeERKSD_
FN:245,245,_ZNSt10_Head_baseILm0EPNSt7__cxx1112basic_stringIcSt11char_traitsIcESaIcEEELb0EE7_M_headERKS7_
FN:245,245,_ZNSt10_Head_baseILm0EPNSt7__cxx1118basic_stringstreamIcSt11char_traitsIcESaIcEEELb0EE7_M_headERKS7_
FN:293,293,_ZNSt11_Tuple_implILm0EJPNSt10filesystem7__cxx114path5_List5_ImplENS3_13_Impl_deleterEEE7_M_headERS7_
FN:293,293,_ZNSt11_Tuple_implILm0EJPNSt7__cxx1112basic_stringIcSt11char_traitsIcESaIcEEESt14default_deleteIS5_EEE7_M_headERS9_
FN:293,293,_ZNSt11_Tuple_implILm0EJPNSt7__cxx1118basic_stringstreamIcSt11char_traitsIcESaIcEEESt14default_deleteIS5_EEE7_M_headERS9_
FN:296,296,_ZNSt11_Tuple_implILm0EJPNSt7__cxx1112basic_stringIcSt11char_traitsIcESaIcEEESt14default_deleteIS5_EEE7_M_headERKS9_
FN:296,296,_ZNSt11_Tuple_implILm0EJPNSt7__cxx1118basic_stringstreamIcSt11char_traitsIcESaIcEEESt14default_deleteIS5_EEE7_M_headERKS9_
FN:304,305,_ZNSt11_Tuple_implILm0EJPNSt7__cxx1112basic_stringIcSt11char_traitsIcESaIcEEESt14default_deleteIS5_EEEC2Ev
FN:556,556,_ZNSt11_Tuple_implILm1EJNSt10filesystem7__cxx114path5_List13_Impl_deleterEEE7_M_headERS5_
FN:556,556,_ZNSt11_Tuple_implILm1EJSt14default_deleteINSt7__cxx1112basic_stringIcSt11char_traitsIcESaIcEEEEEE7_M_headERS8_
FN:556,556,_ZNSt11_Tuple_implILm1EJSt14default_deleteINSt7__cxx1118basic_stringstreamIcSt11char_traitsIcESaIcEEEEEE7_M_headERS8_
FN:562,563,_ZNSt11_Tuple_implILm1EJSt14default_deleteINSt7__cxx1112basic_stringIcSt11char_traitsIcESaIcEEEEEEC2Ev
FN:89,90,_ZNSt10_Head_baseILm1ESt14default_deleteINSt7__cxx1112basic_stringIcSt11char_traitsIcESaIcEEEELb1EEC2Ev
FNDA:10,_ZNSt10_Head_baseILm1ENSt10filesystem7__cxx114path5_List13_Impl_deleterELb1EE7_M_headERS5_
FNDA:0,_ZNSt10_Head_baseILm1ESt14default_deleteINSt7__cxx1112basic_stringIcSt11char_traitsIcESaIcEEEELb1EE7_M_headERS8_
FNDA:0,_ZNSt10_Head_baseILm1ESt14default_deleteINSt7__cxx1118basic_stringstreamIcSt11char_traitsIcESaIcEEEELb1EE7_M_headERS8_
FNDA:6118,_ZNSt10_Head_baseILm0EPNSt7__cxx1112basic_stringIcSt11char_traitsIcESaIcEEELb0EEC2Ev
FNDA:6118,_ZNSt5tupleIJPNSt7__cxx1112basic_stringIcSt11char_traitsIcESaIcEEESt14default_deleteIS5_EEEC2ILb1ELb1EEEv
FNDA:10,_ZNSt10_Head_baseILm0EPNSt10filesystem7__cxx114path5_List5_ImplELb0EE7_M_headERS6_
FNDA:8372,_ZNSt10_Head_baseILm0EPNSt7__cxx1112basic_stringIcSt11char_traitsIcESaIcEEELb0EE7_M_headERS7_
FNDA:0,_ZNSt10_Head_baseILm0EPNSt7__cxx1118basic_stringstreamIcSt11char_traitsIcESaIcEEELb0EE7_M_headERS7_
FNDA:10,_ZSt12__get_helperILm0EPNSt10filesystem7__cxx114path5_List5_ImplEJNS3_13_Impl_deleterEEERT0_RSt11_Tuple_implIXT_EJS7_DpT1_EE
FNDA:8372,_ZSt12__get_helperILm0EPNSt7__cxx1112basic_stringIcSt11char_traitsIcESaIcEEEJSt14default_deleteIS5_EEERT0_RSt11_Tuple_implIXT_EJS9_DpT1_EE
FNDA:0,_ZSt12__get_helperILm0EPNSt7__cxx1118basic_stringstreamIcSt11char_traitsIcESaIcEEEJSt14default_deleteIS5_EEERT0_RSt11_Tuple_implIXT_EJS9_DpT1_EE
FNDA:10,_ZSt12__get_helperILm1ENSt10filesystem7__cxx114path5_List13_Impl_deleterEJEERT0_RSt11_Tuple_implIXT_EJS5_DpT1_EE
FNDA:0,_ZSt12__get_helperILm1ESt14default_deleteINSt7__cxx1112basic_stringIcSt11char_traitsIcESaIcEEEEJEERT0_RSt11_Tuple_implIXT_EJS8_DpT1_EE
FNDA:0,_ZSt12__get_helperILm1ESt14default_deleteINSt7__cxx1118basic_stringstreamIcSt11char_traitsIcESaIcEEEEJEERT0_RSt11_Tuple_implIXT_EJS8_DpT1_EE
FNDA:0,_ZSt12__get_helperILm0EPNSt7__cxx1112basic_stringIcSt11char_traitsIcESaIcEEEJSt14default_deleteIS5_EEERKT0_RKSt11_Tuple_implIXT_EJS9_DpT1_EE
FNDA:0,_ZSt12__get_helperILm0EPNSt7__cxx1118basic_stringstreamIcSt11char_traitsIcESaIcEEEJSt14default_deleteIS5_EEERKT0_RKSt11_Tuple_implIXT_EJS9_DpT1_EE
FNDA:10,_ZSt3getILm0EJPNSt10filesystem7__cxx114path5_List5_ImplENS3_13_Impl_deleterEEERNSt13tuple_elementIXT_ESt5tupleIJDpT0_EEE4typeERSB_
FNDA:8372,_ZSt3getILm0EJPNSt7__cxx1112basic_stringIcSt11char_traitsIcESaIcEEESt14default_deleteIS5_EEERNSt13tuple_elementIXT_ESt5tupleIJDpT0_EEE4typeERSD_
FNDA:0,_ZSt3getILm0EJPNSt7__cxx1118basic_stringstreamIcSt11char_traitsIcESaIcEEESt14default_deleteIS5_EEERNSt13tuple_elementIXT_ESt5tupleIJDpT0_EEE4typeERSD_
FNDA:10,_ZSt3getILm1EJPNSt10filesystem7__cxx114path5_List5_ImplENS3_13_Impl_deleterEEERNSt13tuple_elementIXT_ESt5tupleIJDpT0_EEE4typeERSB_
FNDA:0,_ZSt3getILm1EJPNSt7__cxx1112basic_stringIcSt11char_traitsIcESaIcEEESt14default_deleteIS5_EEERNSt13tuple_elementIXT_ESt5tupleIJDpT0_EEE4typeERSD_
FNDA:0,_ZSt3getILm1EJPNSt7__cxx1118basic_stringstreamIcSt11char_traitsIcESaIcEEESt14default_deleteIS5_EEERNSt13tuple_elementIXT_ESt5tupleIJDpT0_EEE4typeERSD_
FNDA:0,_ZSt3getILm0EJPNSt7__cxx1112basic_stringIcSt11char_traitsIcESaIcEEESt14default_deleteIS5_EEERKNSt13tuple_elementIXT_ESt5tupleIJDpT0_EEE4typeERKSD_
FNDA:0,_ZSt3getILm0EJPNSt7__cxx1118basic_stringstreamIcSt11char_traitsIcESaIcEEESt14default_deleteIS5_EEERKNSt13tuple_elementIXT_ESt5tupleIJDpT0_EEE4typeERKSD_
FNDA:0,_ZNSt10_Head_baseILm0EPNSt7__cxx1112basic_stringIcSt11char_traitsIcESaIcEEELb0EE7_M_headERKS7_
FNDA:0,_ZNSt10_Head_baseILm0EPNSt7__cxx1118basic_stringstreamIcSt11char_traitsIcESaIcEEELb0EE7_M_headERKS7_
FNDA:10,_ZNSt11_Tuple_implILm0EJPNSt10filesystem7__cxx114path5_List5_ImplENS3_13_Impl_deleterEEE7_M_headERS7_
FNDA:8372,_ZNSt11_Tuple_implILm0EJPNSt7__cxx1112basic_stringIcSt11char_traitsIcESaIcEEESt14default_deleteIS5_EEE7_M_headERS9_
FNDA:0,_ZNSt11_Tuple_implILm0EJPNSt7__cxx1118basic_stringstreamIcSt11char_traitsIcESaIcEEESt14default_deleteIS5_EEE7_M_headERS9_
FNDA:0,_ZNSt11_Tuple_implILm0EJPNSt7__cxx1112basic_stringIcSt11char_traitsIcESaIcEEESt14default_deleteIS5_EEE7_M_headERKS9_
FNDA:0,_ZNSt11_Tuple_implILm0EJPNSt7__cxx1118basic_stringstreamIcSt11char_traitsIcESaIcEEESt14default_deleteIS5_EEE7_M_headERKS9_
FNDA:6118,_ZNSt11_Tuple_implILm0EJPNSt7__cxx1112basic_stringIcSt11char_traitsIcESaIcEEESt14default_deleteIS5_EEEC2Ev
FNDA:10,_ZNSt11_Tuple_implILm1EJNSt10filesystem7__cxx114path5_List13_Impl_deleterEEE7_M_headERS5_
FNDA:0,_ZNSt11_Tuple_implILm1EJSt14default_deleteINSt7__cxx1112basic_stringIcSt11char_traitsIcESaIcEEEEEE7_M_headERS8_
FNDA:0,_ZNSt11_Tuple_implILm1EJSt14default_deleteINSt7__cxx1118basic_stringstreamIcSt11char_traitsIcESaIcEEEEEE7_M_headERS8_
FNDA:6118,_ZNSt11_Tuple_implILm1EJSt14default_deleteINSt7__cxx1112basic_stringIcSt11char_traitsIcESaIcEEEEEEC2Ev
FNDA:6118,_ZNSt10_Head_baseILm1ESt14default_deleteINSt7__cxx1112basic_stringIcSt11char_traitsIcESaIcEEEELb1EEC2Ev
FNF:37
FNH:17
DA:89,6118
DA:90,6118
DA:133,10
DA:198,6118
DA:199,6118
DA:242,8382
DA:245,0
DA:293,8382
DA:296,0
DA:304,6118
DA:305,6118
DA:556,10
DA:562,6118
DA:563,6118
DA:2089,6118
DA:2091,6118
DA:2427,8392
DA:2428,8392
DA:2432,0
DA:2433,0
DA:2443,8392
DA:2444,8392
DA:2449,0
DA:2450,0
LF:24
LH:18
end_of_record
TN:
SF:/usr/include/x86_64-linux-gnu/c++/14/bits/c++config.h
FNF:0
FNH:0
DA:550,29362
DA:606,0
LF:2
LH:1
end_of_record
TN:
SF:/usr/local/include/gtest/gtest-assertion-result.h
FN:155,161,_ZN7testing15AssertionResultC2ISiEERKT_PNSt9enable_ifIXntsrSt14is_convertibleIS2_S0_E5valueEvE4typeE
FN:155,161,_ZN7testing15AssertionResultC2IbEERKT_PNSt9enable_ifIXntsrSt14is_convertibleIS2_S0_E5valueEvE4typeE
FN:174,174,_ZNK7testing15AssertionResultcvbEv
FN:183,185,_ZNK7testing15AssertionResult7messageEv
FN:187,187,_ZNK7testing15AssertionResult15failure_messageEv
FN:191,194,_ZN7testing15AssertionResultlsIA12_cEERS0_RKT_
FN:191,194,_ZN7testing15AssertionResultlsIA3_cEERS0_RKT_
FN:191,194,_ZN7testing15AssertionResultlsIA5_cEERS0_RKT_
FN:191,194,_ZN7testing15AssertionResultlsINSt7__cxx1112basic_stringIcSt11char_traitsIcESaIcEEEEERS0_RKT_
FN:191,194,_ZN7testing15AssertionResultlsIPKcEERS0_RKT_
FN:206,209,_ZN7testing15AssertionResult13AppendMessageERKNS_7MessageE
FNDA:6,_ZN7testing15AssertionResultC2ISiEERKT_PNSt9enable_ifIXntsrSt14is_convertibleIS2_S0_E5valueEvE4typeE
FNDA:6112,_ZN7testing15AssertionResultC2IbEERKT_PNSt9enable_ifIXntsrSt14is_convertibleIS2_S0_E5valueEvE4typeE
FNDA:8372,_ZNK7testing15AssertionResultcvbEv
FNDA:0,_ZNK7testing15AssertionResult7messageEv
FNDA:0,_ZNK7testing15AssertionResult15failure_messageEv
FNDA:0,_ZN7testing15AssertionResultlsIA12_cEERS0_RKT_
FNDA:0,_ZN7testing15AssertionResultlsIA3_cEERS0_RKT_
FNDA:0,_ZN7testing15AssertionResultlsIA5_cEERS0_RKT_
FNDA:0,_ZN7testing15AssertionResultlsINSt7__cxx1112basic_stringIcSt11char_traitsIcESaIcEEEEERS0_RKT_
FNDA:0,_ZN7testing15AssertionResultlsIPKcEERS0_RKT_
FNDA:0,_ZN7testing15AssertionResult13AppendMessageERKNS_7MessageE
FNF:11
FNH:3
DA:155,6118
DA:161,6118
DA:174,8372
DA:183,0
DA:184,0
DA:187,0
DA:191,0
DA:192,0
DA:193,0
DA:206,0
DA:207,0
DA:208,0
DA:209,0
LF:13
LH:3
end_of_record
TN:
SF:/usr/local/include/gtest/gtest-message.h
FN:132,150,_ZN7testing7MessagelsIA12_cEERS0_RKT_
FN:132,150,_ZN7testing7MessagelsIA3_cEERS0_RKT_
FN:132,150,_ZN7testing7MessagelsIA5_cEERS0_RKT_
FN:132,150,_ZN7testing7MessagelsINSt7__cxx1112basic_stringIcSt11char_traitsIcESaIcEEEEERS0_RKT_
FN:181,188,_ZN7testing7MessagelsIKcEERS0_RKPT_
FNDA:0,_ZN7testing7MessagelsIA12_cEERS0_RKT_
FNDA:0,_ZN7testing7MessagelsIA3_cEERS0_RKT_
FNDA:0,_ZN7testing7MessagelsIA5_cEERS0_RKT_
FNDA:0,_ZN7testing7MessagelsINSt7__cxx1112basic_stringIcSt11char_traitsIcESaIcEEEEERS0_RKT_
FNDA:0,_ZN7testing7MessagelsIKcEERS0_RKPT_
FNF:5
FNH:0
DA:132,0
DA:148,0
DA:149,0
DA:181,0
DA:182,0
DA:183,0
DA:185,0
DA:187,0
LF:8
LH:0
end_of_record
TN:
SF:/usr/local/include/gtest/gtest-printers.h
FN:1025,1027,_ZN7testing8internal21UniversalTersePrinterIDnE5PrintERKDnPSo
FN:1025,1027,_ZN7testing8internal21UniversalTersePrinterINSt7__cxx1112basic_stringIcSt11char_traitsIcESaIcEEEE5PrintERKS7_PSo
FN:1025,1027,_ZN7testing8internal21UniversalTersePrinterIPN5ListD4NodeEE5PrintERKS4_PSo
FN:1025,1027,_ZN7testing8internal21UniversalTersePrinterIPN5ListS4NodeEE5PrintERKS4_PSo
FN:1025,1027,_ZN7testing8internal21UniversalTersePrinterIPN5Queue4NodeEE5PrintERKS4_PSo
FN:1025,1027,_ZN7testing8internal21UniversalTersePrinterIPN5Stack4NodeEE5PrintERKS4_PSo
FN:1025,1027,_ZN7testing8internal21UniversalTersePrinterIiE5PrintERKiPSo
FN:1025,1027,_ZN7testing8internal21UniversalTersePrinterImE5PrintERKmPSo
FN:1053,1059,_ZN7testing8internal21UniversalTersePrinterIPKcE5PrintES3_PSo
FN:1144,1149,_ZN7testing8internal14UniversalPrintIDnEEvRKT_PSo
FN:1144,1149,_ZN7testing8internal14UniversalPrintINSt7__cxx1112basic_stringIcSt11char_traitsIcESaIcEEEEEvRKT_PSo
FN:1144,1149,_ZN7testing8internal14UniversalPrintIPN5ListD4NodeEEEvRKT_PSo
FN:1144,1149,_ZN7testing8internal14UniversalPrintIPN5ListS4NodeEEEvRKT_PSo
FN:1144,1149,_ZN7testing8internal14UniversalPrintIPN5Queue4NodeEEEvRKT_PSo
FN:1144,1149,_ZN7testing8internal14UniversalPrintIPN5Stack4NodeEEEvRKT_PSo
FN:1144,1149,_ZN7testing8internal14UniversalPrintIiEEvRKT_PSo
FN:1144,1149,_ZN7testing8internal14UniversalPrintImEEvRKT_PSo
FN:1184,1188,_ZN7testing13PrintToStringIDnEENSt7__cxx1112basic_stringIcSt11char_traitsIcESaIcEEERKT_
FN:1184,1188,_ZN7testing13PrintToStringINSt7__cxx1112basic_stringIcSt11char_traitsIcESaIcEEEEES6_RKT_
FN:1184,1188,_ZN7testing13PrintToStringIPKcEENSt7__cxx1112basic_stringIcSt11char_traitsIcESaIcEEERKT_
FN:1184,1188,_ZN7testing13PrintToStringIPN5ListD4NodeEEENSt7__cxx1112basic_stringIcSt11char_traitsIcESaIcEEERKT_
FN:1184,1188,_ZN7testing13PrintToStringIPN5ListS4NodeEEENSt7__cxx1112basic_stringIcSt11char_traitsIcESaIcEEERKT_
FN:1184,1188,_ZN7testing13PrintToStringIPN5Queue4NodeEEENSt7__cxx1112basic_stringIcSt11char_traitsIcESaIcEEERKT_
FN:1184,1188,_ZN7testing13PrintToStringIPN5Stack4NodeEEENSt7__cxx1112basic_stringIcSt11char_traitsIcESaIcEEERKT_
FN:1184,1188,_ZN7testing13PrintToStringIiEENSt7__cxx1112basic_stringIcSt11char_traitsIcESaIcEEERKT_
FN:1184,1188,_ZN7testing13PrintToStringImEENSt7__cxx1112basic_stringIcSt11char_traitsIcESaIcEEERKT_
FN:213,222,_ZN7testing8internal14PointerPrinter10PrintValueIN5ListD4NodeEEEvPT_PSo
FN:213,222,_ZN7testing8internal14PointerPrinter10PrintValueIN5ListS4NodeEEEvPT_PSo
FN:213,222,_ZN7testing8internal14PointerPrinter10PrintValueIN5Queue4NodeEEEvPT_PSo
FN:213,222,_ZN7testing8internal14PointerPrinter10PrintValueIN5Stack4NodeEEEvPT_PSo
FN:244,249,_ZN7testing8internal52internal_stream_operator_without_lexical_name_lookup13StreamPrinter10PrintValueIivEEDTcvvlsdefp0_fp_ERKT_PSo
FN:244,249,_ZN7testing8internal52internal_stream_operator_without_lexical_name_lookup13StreamPrinter10PrintValueImvEEDTcvvlsdefp0_fp_ERKT_PSo
FN:348,359,_ZN7testing8internal17PrintWithFallbackIPN5ListD4NodeEEEvRKT_PSo
FN:348,359,_ZN7testing8internal17PrintWithFallbackIPN5ListS4NodeEEEvRKT_PSo
FN:348,359,_ZN7testing8internal17PrintWithFallbackIPN5Queue4NodeEEEvRKT_PSo
FN:348,359,_ZN7testing8internal17PrintWithFallbackIPN5Stack4NodeEEEvRKT_PSo
FN:348,359,_ZN7testing8internal17PrintWithFallbackIiEEvRKT_PSo
FN:348,359,_ZN7testing8internal17PrintWithFallbackImEEvRKT_PSo
FN:379,381,_ZN7testing8internal19FormatForComparisonIDnPN5ListD4NodeEE6FormatB5cxx11ERKDn
FN:379,381,_ZN7testing8internal19FormatForComparisonIDnPN5ListS4NodeEE6FormatB5cxx11ERKDn
FN:379,381,_ZN7testing8internal19FormatForComparisonIDnPN5Queue4NodeEE6FormatB5cxx11ERKDn
FN:379,381,_ZN7testing8internal19FormatForComparisonIDnPN5Stack4NodeEE6FormatB5cxx11ERKDn
FN:379,381,_ZN7testing8internal19FormatForComparisonINSt7__cxx1112basic_stringIcSt11char_traitsIcESaIcEEEA11_cE6FormatERKS7_
FN:379,381,_ZN7testing8internal19FormatForComparisonINSt7__cxx1112basic_stringIcSt11char_traitsIcESaIcEEEA14_cE6FormatERKS7_
FN:379,381,_ZN7testing8internal19FormatForComparisonINSt7__cxx1112basic_stringIcSt11char_traitsIcESaIcEEEA1_cE6FormatERKS7_
FN:379,381,_ZN7testing8internal19FormatForComparisonINSt7__cxx1112basic_stringIcSt11char_traitsIcESaIcEEEA21_cE6FormatERKS7_
FN:379,381,_ZN7testing8internal19FormatForComparisonINSt7__cxx1112basic_stringIcSt11char_traitsIcESaIcEEEA23_cE6FormatERKS7_
FN:379,381,_ZN7testing8internal19FormatForComparisonINSt7__cxx1112basic_stringIcSt11char_traitsIcESaIcEEEA2_cE6FormatERKS7_
FN:379,381,_ZN7testing8internal19FormatForComparisonINSt7__cxx1112basic_stringIcSt11char_traitsIcESaIcEEEA30_cE6FormatERKS7_
FN:379,381,_ZN7testing8internal19FormatForComparisonINSt7__cxx1112basic_stringIcSt11char_traitsIcESaIcEEEA34_cE6FormatERKS7_
FN:379,381,_ZN7testing8internal19FormatForComparisonINSt7__cxx1112basic_stringIcSt11char_traitsIcESaIcEEEA35_cE6FormatERKS7_
FN:379,381,_ZN7testing8internal19FormatForComparisonINSt7__cxx1112basic_stringIcSt11char_traitsIcESaIcEEEA4_cE6FormatERKS7_
FN:379,381,_ZN7testing8internal19FormatForComparisonINSt7__cxx1112basic_stringIcSt11char_traitsIcESaIcEEEA5_cE6FormatERKS7_
FN:379,381,_ZN7testing8internal19FormatForComparisonINSt7__cxx1112basic_stringIcSt11char_traitsIcESaIcEEEA6_cE6FormatERKS7_
FN:379,381,_ZN7testing8internal19FormatForComparisonINSt7__cxx1112basic_stringIcSt11char_traitsIcESaIcEEEA7_cE6FormatERKS7_
FN:379,381,_ZN7testing8internal19FormatForComparisonINSt7__cxx1112basic_stringIcSt11char_traitsIcESaIcEEEA9_cE6FormatERKS7_
FN:379,381,_ZN7testing8internal19FormatForComparisonINSt7__cxx1112basic_stringIcSt11char_traitsIcESaIcEEES7_E6FormatERKS7_
FN:379,381,_ZN7testing8internal19FormatForComparisonIPN5ListD4NodeEDnE6FormatB5cxx11ERKS4_
FN:379,381,_ZN7testing8internal19FormatForComparisonIPN5ListS4NodeEDnE6FormatB5cxx11ERKS4_
FN:379,381,_ZN7testing8internal19FormatForComparisonIPN5Queue4NodeEDnE6FormatB5cxx11ERKS4_
FN:379,381,_ZN7testing8internal19FormatForComparisonIPN5Stack4NodeEDnE6FormatB5cxx11ERKS4_
FN:379,381,_ZN7testing8internal19FormatForComparisonIimE6FormatB5cxx11ERKi
FN:379,381,_ZN7testing8internal19FormatForComparisonImiE6FormatB5cxx11ERKm
FN:379,381,_ZN7testing8internal19FormatForComparisonImmE6FormatB5cxx11ERKm
FN:388,390,_ZN7testing8internal19FormatForComparisonIA11_cNSt7__cxx1112basic_stringIcSt11char_traitsIcESaIcEEEE6FormatEPKc
FN:388,390,_ZN7testing8internal19FormatForComparisonIA14_cNSt7__cxx1112basic_stringIcSt11char_traitsIcESaIcEEEE6FormatEPKc
FN:388,390,_ZN7testing8internal19FormatForComparisonIA1_cNSt7__cxx1112basic_stringIcSt11char_traitsIcESaIcEEEE6FormatEPKc
FN:388,390,_ZN7testing8internal19FormatForComparisonIA21_cNSt7__cxx1112basic_stringIcSt11char_traitsIcESaIcEEEE6FormatEPKc
FN:388,390,_ZN7testing8internal19FormatForComparisonIA23_cNSt7__cxx1112basic_stringIcSt11char_traitsIcESaIcEEEE6FormatEPKc
FN:388,390,_ZN7testing8internal19FormatForComparisonIA2_cNSt7__cxx1112basic_stringIcSt11char_traitsIcESaIcEEEE6FormatEPKc
FN:388,390,_ZN7testing8internal19FormatForComparisonIA30_cNSt7__cxx1112basic_stringIcSt11char_traitsIcESaIcEEEE6FormatEPKc
FN:388,390,_ZN7testing8internal19FormatForComparisonIA34_cNSt7__cxx1112basic_stringIcSt11char_traitsIcESaIcEEEE6FormatEPKc
FN:388,390,_ZN7testing8internal19FormatForComparisonIA35_cNSt7__cxx1112basic_stringIcSt11char_traitsIcESaIcEEEE6FormatEPKc
FN:388,390,_ZN7testing8internal19FormatForComparisonIA4_cNSt7__cxx1112basic_stringIcSt11char_traitsIcESaIcEEEE6FormatEPKc
FN:388,390,_ZN7testing8internal19FormatForComparisonIA5_cNSt7__cxx1112basic_stringIcSt11char_traitsIcESaIcEEEE6FormatEPKc
FN:388,390,_ZN7testing8internal19FormatForComparisonIA6_cNSt7__cxx1112basic_stringIcSt11char_traitsIcESaIcEEEE6FormatEPKc
FN:388,390,_ZN7testing8internal19FormatForComparisonIA7_cNSt7__cxx1112basic_stringIcSt11char_traitsIcESaIcEEEE6FormatEPKc
FN:388,390,_ZN7testing8internal19FormatForComparisonIA9_cNSt7__cxx1112basic_stringIcSt11char_traitsIcESaIcEEEE6FormatEPKc
FN:433,433,_ZN7testing8internal19FormatForComparisonIPKcNSt7__cxx1112basic_stringIcSt11char_traitsIcESaIcEEEE6FormatES3_
FN:459,462,_ZN7testing8internal33FormatForComparisonFailureMessageIA11_cNSt7__cxx1112basic_stringIcSt11char_traitsIcESaIcEEEEES8_RKT_RKT0_
FN:459,462,_ZN7testing8internal33FormatForComparisonFailureMessageIA14_cNSt7__cxx1112basic_stringIcSt11char_traitsIcESaIcEEEEES8_RKT_RKT0_
FN:459,462,_ZN7testing8internal33FormatForComparisonFailureMessageIA1_cNSt7__cxx1112basic_stringIcSt11char_traitsIcESaIcEEEEES8_RKT_RKT0_
FN:459,462,_ZN7testing8internal33FormatForComparisonFailureMessageIA21_cNSt7__cxx1112basic_stringIcSt11char_traitsIcESaIcEEEEES8_RKT_RKT0_
FN:459,462,_ZN7testing8internal33FormatForComparisonFailureMessageIA23_cNSt7__cxx1112basic_stringIcSt11char_traitsIcESaIcEEEEES8_RKT_RKT0_
FN:459,462,_ZN7testing8internal33FormatForComparisonFailureMessageIA2_cNSt7__cxx1112basic_stringIcSt11char_traitsIcESaIcEEEEES8_RKT_RKT0_
FN:459,462,_ZN7testing8internal33FormatForComparisonFailureMessageIA30_cNSt7__cxx1112basic_stringIcSt11char_traitsIcESaIcEEEEES8_RKT_RKT0_
FN:459,462,_ZN7testing8internal33FormatForComparisonFailureMessageIA34_cNSt7__cxx1112basic_stringIcSt11char_traitsIcESaIcEEEEES8_RKT_RKT0_
FN:459,462,_ZN7testing8internal33FormatForComparisonFailureMessageIA35_cNSt7__cxx1112basic_stringIcSt11char_traitsIcESaIcEEEEES8_RKT_RKT0_
FN:459,462,_ZN7testing8internal33FormatForComparisonFailureMessageIA4_cNSt7__cxx1112basic_stringIcSt11char_traitsIcESaIcEEEEES8_RKT_RKT0_
FN:459,462,_ZN7testing8internal33FormatForComparisonFailureMessageIA5_cNSt7__cxx1112basic_stringIcSt11char_traitsIcESaIcEEEEES8_RKT_RKT0_
FN:459,462,_ZN7testing8internal33FormatForComparisonFailureMessageIA6_cNSt7__cxx1112basic_stringIcSt11char_traitsIcESaIcEEEEES8_RKT_RKT0_
FN:459,462,_ZN7testing8internal33FormatForComparisonFailureMessageIA7_cNSt7__cxx1112basic_stringIcSt11char_traitsIcESaIcEEEEES8_RKT_RKT0_
FN:459,462,_ZN7testing8internal33FormatForComparisonFailureMessageIA9_cNSt7__cxx1112basic_stringIcSt11char_traitsIcESaIcEEEEES8_RKT_RKT0_
FN:459,462,_ZN7testing8internal33FormatForComparisonFailureMessageIDnPN5ListD4NodeEEENSt7__cxx1112basic_stringIcSt11char_traitsIcESaIcEEERKT_RKT0_
FN:459,462,_ZN7testing8internal33FormatForComparisonFailureMessageIDnPN5ListS4NodeEEENSt7__cxx1112basic_stringIcSt11char_traitsIcESaIcEEERKT_RKT0_
FN:459,462,_ZN7testing8internal33FormatForComparisonFailureMessageIDnPN5Queue4NodeEEENSt7__cxx1112basic_stringIcSt11char_traitsIcESaIcEEERKT_RKT0_
FN:459,462,_ZN7testing8internal33FormatForComparisonFailureMessageIDnPN5Stack4NodeEEENSt7__cxx1112basic_stringIcSt11char_traitsIcESaIcEEERKT_RKT0_
FN:459,462,_ZN7testing8internal33FormatForComparisonFailureMessageINSt7__cxx1112basic_stringIcSt11char_traitsIcESaIcEEEA11_cEES7_RKT_RKT0_
FN:459,462,_ZN7testing8internal33FormatForComparisonFailureMessageINSt7__cxx1112basic_stringIcSt11char_traitsIcESaIcEEEA14_cEES7_RKT_RKT0_
FN:459,462,_ZN7testing8internal33FormatForComparisonFailureMessageINSt7__cxx1112basic_stringIcSt11char_traitsIcESaIcEEEA1_cEES7_RKT_RKT0_
FN:459,462,_ZN7testing8internal33FormatForComparisonFailureMessageINSt7__cxx1112basic_stringIcSt11char_traitsIcESaIcEEEA21_cEES7_RKT_RKT0_
FN:459,462,_ZN7testing8internal33FormatForComparisonFailureMessageINSt7__cxx1112basic_stringIcSt11char_traitsIcESaIcEEEA23_cEES7_RKT_RKT0_
FN:459,462,_ZN7testing8internal33FormatForComparisonFailureMessageINSt7__cxx1112basic_stringIcSt11char_traitsIcESaIcEEEA2_cEES7_RKT_RKT0_
FN:459,462,_ZN7testing8internal33FormatForComparisonFailureMessageINSt7__cxx1112basic_stringIcSt11char_traitsIcESaIcEEEA30_cEES7_RKT_RKT0_
FN:459,462,_ZN7testing8internal33FormatForComparisonFailureMessageINSt7__cxx1112basic_stringIcSt11char_traitsIcESaIcEEEA34_cEES7_RKT_RKT0_
FN:459,462,_ZN7testing8internal33FormatForComparisonFailureMessageINSt7__cxx1112basic_stringIcSt11char_traitsIcESaIcEEEA35_cEES7_RKT_RKT0_
FN:459,462,_ZN7testing8internal33FormatForComparisonFailureMessageINSt7__cxx1112basic_stringIcSt11char_traitsIcESaIcEEEA4_cEES7_RKT_RKT0_
FN:459,462,_ZN7testing8internal33FormatForComparisonFailureMessageINSt7__cxx1112basic_stringIcSt11char_traitsIcESaIcEEEA5_cEES7_RKT_RKT0_
FN:459,462,_ZN7testing8internal33FormatForComparisonFailureMessageINSt7__cxx1112basic_stringIcSt11char_traitsIcESaIcEEEA6_cEES7_RKT_RKT0_
FN:459,462,_ZN7testing8internal33FormatForComparisonFailureMessageINSt7__cxx1112basic_stringIcSt11char_traitsIcESaIcEEEA7_cEES7_RKT_RKT0_
FN:459,462,_ZN7testing8internal33FormatForComparisonFailureMessageINSt7__cxx1112basic_stringIcSt11char_traitsIcESaIcEEEA9_cEES7_RKT_RKT0_
FN:459,462,_ZN7testing8internal33FormatForComparisonFailureMessageINSt7__cxx1112basic_stringIcSt11char_traitsIcESaIcEEES7_EES7_RKT_RKT0_
FN:459,462,_ZN7testing8internal33FormatForComparisonFailureMessageIPN5ListD4NodeEDnEENSt7__cxx1112basic_stringIcSt11char_traitsIcESaIcEEERKT_RKT0_
FN:459,462,_ZN7testing8internal33FormatForComparisonFailureMessageIPN5ListS4NodeEDnEENSt7__cxx1112basic_stringIcSt11char_traitsIcESaIcEEERKT_RKT0_
FN:459,462,_ZN7testing8internal33FormatForComparisonFailureMessageIPN5Queue4NodeEDnEENSt7__cxx1112basic_stringIcSt11char_traitsIcESaIcEEERKT_RKT0_
FN:459,462,_ZN7testing8internal33FormatForComparisonFailureMessageIPN5Stack4NodeEDnEENSt7__cxx1112basic_stringIcSt11char_traitsIcESaIcEEERKT_RKT0_
FN:459,462,_ZN7testing8internal33FormatForComparisonFailureMessageIimEENSt7__cxx1112basic_stringIcSt11char_traitsIcESaIcEEERKT_RKT0_
FN:459,462,_ZN7testing8internal33FormatForComparisonFailureMessageImiEENSt7__cxx1112basic_stringIcSt11char_traitsIcESaIcEEERKT_RKT0_
FN:459,462,_ZN7testing8internal33FormatForComparisonFailureMessageImmEENSt7__cxx1112basic_stringIcSt11char_traitsIcESaIcEEERKT_RKT0_
FN:486,488,_ZN7testing8internal7PrintToIPN5ListD4NodeEEEvRKT_PSo
FN:486,488,_ZN7testing8internal7PrintToIPN5ListS4NodeEEEvRKT_PSo
FN:486,488,_ZN7testing8internal7PrintToIPN5Queue4NodeEEEvRKT_PSo
FN:486,488,_ZN7testing8internal7PrintToIPN5Stack4NodeEEEvRKT_PSo
FN:486,488,_ZN7testing8internal7PrintToIiEEvRKT_PSo
FN:486,488,_ZN7testing8internal7PrintToImEEvRKT_PSo
FN:696,698,_ZN7testing8internal7PrintToERKNSt7__cxx1112basic_stringIcSt11char_traitsIcESaIcEEEPSo
FN:735,735,_ZN7testing8internal7PrintToEDnPSo
FN:835,845,_ZN7testing8internal16UniversalPrinterIDnE5PrintERKDnPSo
FN:835,845,_ZN7testing8internal16UniversalPrinterINSt7__cxx1112basic_stringIcSt11char_traitsIcESaIcEEEE5PrintERKS7_PSo
FN:835,845,_ZN7testing8internal16UniversalPrinterIPN5ListD4NodeEE5PrintERKS4_PSo
FN:835,845,_ZN7testing8internal16UniversalPrinterIPN5ListS4NodeEE5PrintERKS4_PSo
FN:835,845,_ZN7testing8internal16UniversalPrinterIPN5Queue4NodeEE5PrintERKS4_PSo
FN:835,845,_ZN7testing8internal16UniversalPrinterIPN5Stack4NodeEE5PrintERKS4_PSo
FN:835,845,_ZN7testing8internal16UniversalPrinterIiE5PrintERKiPSo
FN:835,845,_ZN7testing8internal16UniversalPrinterImE5PrintERKmPSo
FNDA:0,_ZN7testing8internal21UniversalTersePrinterIDnE5PrintERKDnPSo
FNDA:0,_ZN7testing8internal21UniversalTersePrinterINSt7__cxx1112basic_stringIcSt11char_traitsIcESaIcEEEE5PrintERKS7_PSo
FNDA:0,_ZN7testing8internal21UniversalTersePrinterIPN5ListD4NodeEE5PrintERKS4_PSo
FNDA:0,_ZN7testing8internal21UniversalTersePrinterIPN5ListS4NodeEE5PrintERKS4_PSo
FNDA:0,_ZN7testing8internal21UniversalTersePrinterIPN5Queue4NodeEE5PrintERKS4_PSo
FNDA:0,_ZN7testing8internal21UniversalTersePrinterIPN5Stack4NodeEE5PrintERKS4_PSo
FNDA:0,_ZN7testing8internal21UniversalTersePrinterIiE5PrintERKiPSo
FNDA:0,_ZN7testing8internal21UniversalTersePrinterImE5PrintERKmPSo
FNDA:0,_ZN7testing8internal21UniversalTersePrinterIPKcE5PrintES3_PSo
FNDA:0,_ZN7testing8internal14UniversalPrintIDnEEvRKT_PSo
FNDA:0,_ZN7testing8internal14UniversalPrintINSt7__cxx1112basic_stringIcSt11char_traitsIcESaIcEEEEEvRKT_PSo
FNDA:0,_ZN7testing8internal14UniversalPrintIPN5ListD4NodeEEEvRKT_PSo
FNDA:0,_ZN7testing8internal14UniversalPrintIPN5ListS4NodeEEEvRKT_PSo
FNDA:0,_ZN7testing8internal14UniversalPrintIPN5Queue4NodeEEEvRKT_PSo
FNDA:0,_ZN7testing8internal14UniversalPrintIPN5Stack4NodeEEEvRKT_PSo
FNDA:0,_ZN7testing8internal14UniversalPrintIiEEvRKT_PSo
FNDA:0,_ZN7testing8internal14UniversalPrintImEEvRKT_PSo
FNDA:0,_ZN7testing13PrintToStringIDnEENSt7__cxx1112basic_stringIcSt11char_traitsIcESaIcEEERKT_
FNDA:0,_ZN7testing13PrintToStringINSt7__cxx1112basic_stringIcSt11char_traitsIcESaIcEEEEES6_RKT_
FNDA:0,_ZN7testing13PrintToStringIPKcEENSt7__cxx1112basic_stringIcSt11char_traitsIcESaIcEEERKT_
FNDA:0,_ZN7testing13PrintToStringIPN5ListD4NodeEEENSt7__cxx1112basic_stringIcSt11char_traitsIcESaIcEEERKT_
FNDA:0,_ZN7testing13PrintToStringIPN5ListS4NodeEEENSt7__cxx1112basic_stringIcSt11char_traitsIcESaIcEEERKT_
FNDA:0,_ZN7testing13PrintToStringIPN5Queue4NodeEEENSt7__cxx1112basic_stringIcSt11char_traitsIcESaIcEEERKT_
FNDA:0,_ZN7testing13PrintToStringIPN5Stack4NodeEEENSt7__cxx1112basic_stringIcSt11char_traitsIcESaIcEEERKT_
FNDA:0,_ZN7testing13PrintToStringIiEENSt7__cxx1112basic_stringIcSt11char_traitsIcESaIcEEERKT_
FNDA:0,_ZN7testing13PrintToStringImEENSt7__cxx1112basic_stringIcSt11char_traitsIcESaIcEEERKT_
FNDA:0,_ZN7testing8internal14PointerPrinter10PrintValueIN5ListD4NodeEEEvPT_PSo
FNDA:0,_ZN7testing8internal14PointerPrinter10PrintValueIN5ListS4NodeEEEvPT_PSo
FNDA:0,_ZN7testing8internal14PointerPrinter10PrintValueIN5Queue4NodeEEEvPT_PSo
FNDA:0,_ZN7testing8internal14PointerPrinter10PrintValueIN5Stack4NodeEEEvPT_PSo
FNDA:0,_ZN7testing8internal52internal_stream_operator_without_lexical_name_lookup13StreamPrinter10PrintValueIivEEDTcvvlsdefp0_fp_ERKT_PSo
FNDA:0,_ZN7testing8internal52internal_stream_operator_without_lexical_name_lookup13StreamPrinter10PrintValueImvEEDTcvvlsdefp0_fp_ERKT_PSo
FNDA:0,_ZN7testing8internal17PrintWithFallbackIPN5ListD4NodeEEEvRKT_PSo
FNDA:0,_ZN7testing8internal17PrintWithFallbackIPN5ListS4NodeEEEvRKT_PSo
FNDA:0,_ZN7testing8internal17PrintWithFallbackIPN5Queue4NodeEEEvRKT_PSo
FNDA:0,_ZN7testing8internal17PrintWithFallbackIPN5Stack4NodeEEEvRKT_PSo
FNDA:0,_ZN7testing8internal17PrintWithFallbackIiEEvRKT_PSo
FNDA:0,_ZN7testing8internal17PrintWithFallbackImEEvRKT_PSo
FNDA:0,_ZN7testing8internal19FormatForComparisonIDnPN5ListD4NodeEE6FormatB5cxx11ERKDn
FNDA:0,_ZN7testing8internal19FormatForComparisonIDnPN5ListS4NodeEE6FormatB5cxx11ERKDn
FNDA:0,_ZN7testing8internal19FormatForComparisonIDnPN5Queue4NodeEE6FormatB5cxx11ERKDn
FNDA:0,_ZN7testing8internal19FormatForComparisonIDnPN5Stack4NodeEE6FormatB5cxx11ERKDn
FNDA:0,_ZN7testing8internal19FormatForComparisonINSt7__cxx1112basic_stringIcSt11char_traitsIcESaIcEEEA11_cE6FormatERKS7_
FNDA:0,_ZN7testing8internal19FormatForComparisonINSt7__cxx1112basic_stringIcSt11char_traitsIcESaIcEEEA14_cE6FormatERKS7_
FNDA:0,_ZN7testing8internal19FormatForComparisonINSt7__cxx1112basic_stringIcSt11char_traitsIcESaIcEEEA1_cE6FormatERKS7_
FNDA:0,_ZN7testing8internal19FormatForComparisonINSt7__cxx1112basic_stringIcSt11char_traitsIcESaIcEEEA21_cE6FormatERKS7_
FNDA:0,_ZN7testing8internal19FormatForComparisonINSt7__cxx1112basic_stringIcSt11char_traitsIcESaIcEEEA23_cE6FormatERKS7_
FNDA:0,_ZN7testing8internal19FormatForComparisonINSt7__cxx1112basic_stringIcSt11char_traitsIcESaIcEEEA2_cE6FormatERKS7_
FNDA:0,_ZN7testing8internal19FormatForComparisonINSt7__cxx1112basic_stringIcSt11char_traitsIcESaIcEEEA30_cE6FormatERKS7_
FNDA:0,_ZN7testing8internal19FormatForComparisonINSt7__cxx1112basic_stringIcSt11char_traitsIcESaIcEEEA34_cE6FormatERKS7_
FNDA:0,_ZN7testing8internal19FormatForComparisonINSt7__cxx1112basic_stringIcSt11char_traitsIcESaIcEEEA35_cE6FormatERKS7_
FNDA:0,_ZN7testing8internal19FormatForComparisonINSt7__cxx1112basic_stringIcSt11char_traitsIcESaIcEEEA4_cE6FormatERKS7_
FNDA:0,_ZN7testing8internal19FormatForComparisonINSt7__cxx1112basic_stringIcSt11char_traitsIcESaIcEEEA5_cE6FormatERKS7_
FNDA:0,_ZN7testing8internal19FormatForComparisonINSt7__cxx1112basic_stringIcSt11char_traitsIcESaIcEEEA6_cE6FormatERKS7_
FNDA:0,_ZN7testing8internal19FormatForComparisonINSt7__cxx1112basic_stringIcSt11char_traitsIcESaIcEEEA7_cE6FormatERKS7_
FNDA:0,_ZN7testing8internal19FormatForComparisonINSt7__cxx1112basic_stringIcSt11char_traitsIcESaIcEEEA9_cE6FormatERKS7_
FNDA:0,_ZN7testing8internal19FormatForComparisonINSt7__cxx1112basic_stringIcSt11char_traitsIcESaIcEEES7_E6FormatERKS7_
FNDA:0,_ZN7testing8internal19FormatForComparisonIPN5ListD4NodeEDnE6FormatB5cxx11ERKS4_
FNDA:0,_ZN7testing8internal19FormatForComparisonIPN5ListS4NodeEDnE6FormatB5cxx11ERKS4_
FNDA:0,_ZN7testing8internal19FormatForComparisonIPN5Queue4NodeEDnE6FormatB5cxx11ERKS4_
FNDA:0,_ZN7testing8internal19FormatForComparisonIPN5Stack4NodeEDnE6FormatB5cxx11ERKS4_
FNDA:0,_ZN7testing8internal19FormatForComparisonIimE6FormatB5cxx11ERKi
FNDA:0,_ZN7testing8internal19FormatForComparisonImiE6FormatB5cxx11ERKm
FNDA:0,_ZN7testing8internal19FormatForComparisonImmE6FormatB5cxx11ERKm
FNDA:0,_ZN7testing8internal19FormatForComparisonIA11_cNSt7__cxx1112basic_stringIcSt11char_traitsIcESaIcEEEE6FormatEPKc
FNDA:0,_ZN7testing8internal19FormatForComparisonIA14_cNSt7__cxx1112basic_stringIcSt11char_traitsIcESaIcEEEE6FormatEPKc
FNDA:0,_ZN7testing8internal19FormatForComparisonIA1_cNSt7__cxx1112basic_stringIcSt11char_traitsIcESaIcEEEE6FormatEPKc
FNDA:0,_ZN7testing8internal19FormatForComparisonIA21_cNSt7__cxx1112basic_stringIcSt11char_traitsIcESaIcEEEE6FormatEPKc
FNDA:0,_ZN7testing8internal19FormatForComparisonIA23_cNSt7__cxx1112basic_stringIcSt11char_traitsIcESaIcEEEE6FormatEPKc
FNDA:0,_ZN7testing8internal19FormatForComparisonIA2_cNSt7__cxx1112basic_stringIcSt11char_traitsIcESaIcEEEE6FormatEPKc
FNDA:0,_ZN7testing8internal19FormatForComparisonIA30_cNSt7__cxx1112basic_stringIcSt11char_traitsIcESaIcEEEE6FormatEPKc
FNDA:0,_ZN7testing8internal19FormatForComparisonIA34_cNSt7__cxx1112basic_stringIcSt11char_traitsIcESaIcEEEE6FormatEPKc
FNDA:0,_ZN7testing8internal19FormatForComparisonIA35_cNSt7__cxx1112basic_stringIcSt11char_traitsIcESaIcEEEE6FormatEPKc
FNDA:0,_ZN7testing8internal19FormatForComparisonIA4_cNSt7__cxx1112basic_stringIcSt11char_traitsIcESaIcEEEE6FormatEPKc
FNDA:0,_ZN7testing8internal19FormatForComparisonIA5_cNSt7__cxx1112basic_stringIcSt11char_traitsIcESaIcEEEE6FormatEPKc
FNDA:0,_ZN7testing8internal19FormatForComparisonIA6_cNSt7__cxx1112basic_stringIcSt11char_traitsIcESaIcEEEE6FormatEPKc
FNDA:0,_ZN7testing8internal19FormatForComparisonIA7_cNSt7__cxx1112basic_stringIcSt11char_traitsIcESaIcEEEE6FormatEPKc
FNDA:0,_ZN7testing8internal19FormatForComparisonIA9_cNSt7__cxx1112basic_stringIcSt11char_traitsIcESaIcEEEE6FormatEPKc
FNDA:0,_ZN7testing8internal19FormatForComparisonIPKcNSt7__cxx1112basic_stringIcSt11char_traitsIcESaIcEEEE6FormatES3_
FNDA:0,_ZN7testing8internal33FormatForComparisonFailureMessageIA11_cNSt7__cxx1112basic_stringIcSt11char_traitsIcESaIcEEEEES8_RKT_RKT0_
FNDA:0,_ZN7testing8internal33FormatForComparisonFailureMessageIA14_cNSt7__cxx1112basic_stringIcSt11char_traitsIcESaIcEEEEES8_RKT_RKT0_
FNDA:0,_ZN7testing8internal33FormatForComparisonFailureMessageIA1_cNSt7__cxx1112basic_stringIcSt11char_traitsIcESaIcEEEEES8_RKT_RKT0_
FNDA:0,_ZN7testing8internal33FormatForComparisonFailureMessageIA21_cNSt7__cxx1112basic_stringIcSt11char_traitsIcESaIcEEEEES8_RKT_RKT0_
FNDA:0,_ZN7testing8internal33FormatForComparisonFailureMessageIA23_cNSt7__cxx1112basic_stringIcSt11char_traitsIcESaIcEEEEES8_RKT_RKT0_
FNDA:0,_ZN7testing8internal33FormatForComparisonFailureMessageIA2_cNSt7__cxx1112basic_stringIcSt11char_traitsIcESaIcEEEEES8_RKT_RKT0_
FNDA:0,_ZN7testing8internal33FormatForComparisonFailureMessageIA30_cNSt7__cxx1112basic_stringIcSt11char_traitsIcESaIcEEEEES8_RKT_RKT0_
FNDA:0,_ZN7testing8internal33FormatForComparisonFailureMessageIA34_cNSt7__cxx1112basic_stringIcSt11char_traitsIcESaIcEEEEES8_RKT_RKT0_
FNDA:0,_ZN7testing8internal33FormatForComparisonFailureMessageIA35_cNSt7__cxx1112basic_stringIcSt11char_traitsIcESaIcEEEEES8_RKT_RKT0_
FNDA:0,_ZN7testing8internal33FormatForComparisonFailureMessageIA4_cNSt7__cxx1112basic_stringIcSt11char_traitsIcESaIcEEEEES8_RKT_RKT0_
FNDA:0,_ZN7testing8internal33FormatForComparisonFailureMessageIA5_cNSt7__cxx1112basic_stringIcSt11char_traitsIcESaIcEEEEES8_RKT_RKT0_
FNDA:0,_ZN7testing8internal33FormatForComparisonFailureMessageIA6_cNSt7__cxx1112basic_stringIcSt11char_traitsIcESaIcEEEEES8_RKT_RKT0_
FNDA:0,_ZN7testing8internal33FormatForComparisonFailureMessageIA7_cNSt7__cxx1112basic_stringIcSt11char_traitsIcESaIcEEEEES8_RKT_RKT0_
FNDA:0,_ZN7testing8internal33FormatForComparisonFailureMessageIA9_cNSt7__cxx1112basic_stringIcSt11char_traitsIcESaIcEEEEES8_RKT_RKT0_
FNDA:0,_ZN7testing8internal33FormatForComparisonFailureMessageIDnPN5ListD4NodeEEENSt7__cxx1112basic_stringIcSt11char_traitsIcESaIcEEERKT_RKT0_
FNDA:0,_ZN7testing8internal33FormatForComparisonFailureMessageIDnPN5ListS4NodeEEENSt7__cxx1112basic_stringIcSt11char_traitsIcESaIcEEERKT_RKT0_
FNDA:0,_ZN7testing8internal33FormatForComparisonFailureMessageIDnPN5Queue4NodeEEENSt7__cxx1112basic_stringIcSt11char_traitsIcESaIcEEERKT_RKT0_
FNDA:0,_ZN7testing8internal33FormatForComparisonFailureMessageIDnPN5Stack4NodeEEENSt7__cxx1112basic_stringIcSt11char_traitsIcESaIcEEERKT_RKT0_
FNDA:0,_ZN7testing8internal33FormatForComparisonFailureMessageINSt7__cxx1112basic_stringIcSt11char_traitsIcESaIcEEEA11_cEES7_RKT_RKT0_
FNDA:0,_ZN7testing8internal33FormatForComparisonFailureMessageINSt7__cxx1112basic_stringIcSt11char_traitsIcESaIcEEEA14_cEES7_RKT_RKT0_
FNDA:0,_ZN7testing8internal33FormatForComparisonFailureMessageINSt7__cxx1112basic_stringIcSt11char_traitsIcESaIcEEEA1_cEES7_RKT_RKT0_
FNDA:0,_ZN7testing8internal33FormatForComparisonFailureMessageINSt7__cxx1112basic_stringIcSt11char_traitsIcESaIcEEEA21_cEES7_RKT_RKT0_
FNDA:0,_ZN7testing8internal33FormatForComparisonFailureMessageINSt7__cxx1112basic_stringIcSt11char_traitsIcESaIcEEEA23_cEES7_RKT_RKT0_
FNDA:0,_ZN7testing8internal33FormatForComparisonFailureMessageINSt7__cxx1112basic_stringIcSt11char_traitsIcESaIcEEEA2_cEES7_RKT_RKT0_
FNDA:0,_ZN7testing8internal33FormatForComparisonFailureMessageINSt7__cxx1112basic_stringIcSt11char_traitsIcESaIcEEEA30_cEES7_RKT_RKT0_
FNDA:0,_ZN7testing8internal33FormatForComparisonFailureMessageINSt7__cxx1112basic_stringIcSt11char_traitsIcESaIcEEEA34_cEES7_RKT_RKT0_
FNDA:0,_ZN7testing8internal33FormatForComparisonFailureMessageINSt7__cxx1112basic_stringIcSt11char_traitsIcESaIcEEEA35_cEES7_RKT_RKT0_
FNDA:0,_ZN7testing8internal33FormatForComparisonFailureMessageINSt7__cxx1112basic_stringIcSt11char_traitsIcESaIcEEEA4_cEES7_RKT_RKT0_
FNDA:0,_ZN7testing8internal33FormatForComparisonFailureMessageINSt7__cxx1112basic_stringIcSt11char_traitsIcESaIcEEEA5_cEES7_RKT_RKT0_
FNDA:0,_ZN7testing8internal33FormatForComparisonFailureMessageINSt7__cxx1112basic_stringIcSt11char_traitsIcESaIcEEEA6_cEES7_RKT_RKT0_
FNDA:0,_ZN7testing8internal33FormatForComparisonFailureMessageINSt7__cxx1112basic_stringIcSt11char_traitsIcESaIcEEEA7_cEES7_RKT_RKT0_
FNDA:0,_ZN7testing8internal33FormatForComparisonFailureMessageINSt7__cxx1112basic_stringIcSt11char_traitsIcESaIcEEEA9_cEES7_RKT_RKT0_
FNDA:0,_ZN7testing8internal33FormatForComparisonFailureMessageINSt7__cxx1112basic_stringIcSt11char_traitsIcESaIcEEES7_EES7_RKT_RKT0_
FNDA:0,_ZN7testing8internal33FormatForComparisonFailureMessageIPN5ListD4NodeEDnEENSt7__cxx1112basic_stringIcSt11char_traitsIcESaIcEEERKT_RKT0_
FNDA:0,_ZN7testing8internal33FormatForComparisonFailureMessageIPN5ListS4NodeEDnEENSt7__cxx1112basic_stringIcSt11char_traitsIcESaIcEEERKT_RKT0_
FNDA:0,_ZN7testing8internal33FormatForComparisonFailureMessageIPN5Queue4NodeEDnEENSt7__cxx1112basic_stringIcSt11char_traitsIcESaIcEEERKT_RKT0_
FNDA:0,_ZN7testing8internal33FormatForComparisonFailureMessageIPN5Stack4NodeEDnEENSt7__cxx1112basic_stringIcSt11char_traitsIcESaIcEEERKT_RKT0_
FNDA:0,_ZN7testing8internal33FormatForComparisonFailureMessageIimEENSt7__cxx1112basic_stringIcSt11char_traitsIcESaIcEEERKT_RKT0_
FNDA:0,_ZN7testing8internal33FormatForComparisonFailureMessageImiEENSt7__cxx1112basic_stringIcSt11char_traitsIcESaIcEEERKT_RKT0_
FNDA:0,_ZN7testing8internal33FormatForComparisonFailureMessageImmEENSt7__cxx1112basic_stringIcSt11char_traitsIcESaIcEEERKT_RKT0_
FNDA:0,_ZN7testing8internal7PrintToIPN5ListD4NodeEEEvRKT_PSo
FNDA:0,_ZN7testing8internal7PrintToIPN5ListS4NodeEEEvRKT_PSo
FNDA:0,_ZN7testing8internal7PrintToIPN5Queue4NodeEEEvRKT_PSo
FNDA:0,_ZN7testing8internal7PrintToIPN5Stack4NodeEEEvRKT_PSo
FNDA:0,_ZN7testing8internal7PrintToIiEEvRKT_PSo
FNDA:0,_ZN7testing8internal7PrintToImEEvRKT_PSo
FNDA:0,_ZN7testing8internal7PrintToERKNSt7__cxx1112basic_stringIcSt11char_traitsIcESaIcEEEPSo
FNDA:0,_ZN7testing8internal7PrintToEDnPSo
FNDA:0,_ZN7testing8internal16UniversalPrinterIDnE5PrintERKDnPSo
FNDA:0,_ZN7testing8internal16UniversalPrinterINSt7__cxx1112basic_stringIcSt11char_traitsIcESaIcEEEE5PrintERKS7_PSo
FNDA:0,_ZN7testing8internal16UniversalPrinterIPN5ListD4NodeEE5PrintERKS4_PSo
FNDA:0,_ZN7testing8internal16UniversalPrinterIPN5ListS4NodeEE5PrintERKS4_PSo
FNDA:0,_ZN7testing8internal16UniversalPrinterIPN5Queue4NodeEE5PrintERKS4_PSo
FNDA:0,_ZN7testing8internal16UniversalPrinterIPN5Stack4NodeEE5PrintERKS4_PSo
FNDA:0,_ZN7testing8internal16UniversalPrinterIiE5PrintERKiPSo
FNDA:0,_ZN7testing8internal16UniversalPrinterImE5PrintERKmPSo
FNF:135
FNH:0
DA:213,0
DA:214,0
DA:215,0
DA:220,0
DA:222,0
DA:244,0
DA:248,0
DA:249,0
DA:348,0
DA:358,0
DA:359,0
DA:379,0
DA:380,0
DA:388,0
DA:389,0
DA:433,0
DA:459,0
DA:461,0
DA:486,0
DA:487,0
DA:488,0
DA:696,0
DA:697,0
DA:698,0
DA:735,0
DA:835,0
DA:844,0
DA:845,0
DA:1025,0
DA:1026,0
DA:1027,0
DA:1053,0
DA:1054,0
DA:1055,0
DA:1057,0
DA:1059,0
DA:1144,0
DA:1148,0
DA:1149,0
DA:1184,0
DA:1185,0
DA:1186,0
DA:1187,0
DA:1188,0
LF:44
LH:0
end_of_record
TN:
SF:/usr/local/include/gtest/gtest.h
FN:1374,1380,_ZN7testing8internal18CmpHelperEQFailureINSt7__cxx1112basic_stringIcSt11char_traitsIcESaIcEEEA11_cEENS_15AssertionResultEPKcSB_RKT_RKT0_
FN:1374,1380,_ZN7testing8internal18CmpHelperEQFailureINSt7__cxx1112basic_stringIcSt11char_traitsIcESaIcEEEA14_cEENS_15AssertionResultEPKcSB_RKT_RKT0_
FN:1374,1380,_ZN7testing8internal18CmpHelperEQFailureINSt7__cxx1112basic_stringIcSt11char_traitsIcESaIcEEEA21_cEENS_15AssertionResultEPKcSB_RKT_RKT0_
FN:1374,1380,_ZN7testing8internal18CmpHelperEQFailureINSt7__cxx1112basic_stringIcSt11char_traitsIcESaIcEEEA23_cEENS_15AssertionResultEPKcSB_RKT_RKT0_
FN:1374,1380,_ZN7testing8internal18CmpHelperEQFailureINSt7__cxx1112basic_stringIcSt11char_traitsIcESaIcEEEA2_cEENS_15AssertionResultEPKcSB_RKT_RKT0_
FN:1374,1380,_ZN7testing8internal18CmpHelperEQFailureINSt7__cxx1112basic_stringIcSt11char_traitsIcESaIcEEEA30_cEENS_15AssertionResultEPKcSB_RKT_RKT0_
FN:1374,1380,_ZN7testing8internal18CmpHelperEQFailureINSt7__cxx1112basic_stringIcSt11char_traitsIcESaIcEEEA34_cEENS_15AssertionResultEPKcSB_RKT_RKT0_
FN:1374,1380,_ZN7testing8internal18CmpHelperEQFailureINSt7__cxx1112basic_stringIcSt11char_traitsIcESaIcEEEA35_cEENS_15AssertionResultEPKcSB_RKT_RKT0_
FN:1374,1380,_ZN7testing8internal18CmpHelperEQFailureINSt7__cxx1112basic_stringIcSt11char_traitsIcESaIcEEEA4_cEENS_15AssertionResultEPKcSB_RKT_RKT0_
FN:1374,1380,_ZN7testing8internal18CmpHelperEQFailureINSt7__cxx1112basic_stringIcSt11char_traitsIcESaIcEEEA5_cEENS_15AssertionResultEPKcSB_RKT_RKT0_
FN:1374,1380,_ZN7testing8internal18CmpHelperEQFailureINSt7__cxx1112basic_stringIcSt11char_traitsIcESaIcEEEA6_cEENS_15AssertionResultEPKcSB_RKT_RKT0_
FN:1374,1380,_ZN7testing8internal18CmpHelperEQFailureINSt7__cxx1112basic_stringIcSt11char_traitsIcESaIcEEEA7_cEENS_15AssertionResultEPKcSB_RKT_RKT0_
FN:1374,1380,_ZN7testing8internal18CmpHelperEQFailureINSt7__cxx1112basic_stringIcSt11char_traitsIcESaIcEEEA9_cEENS_15AssertionResultEPKcSB_RKT_RKT0_
FN:1374,1380,_ZN7testing8internal18CmpHelperEQFailureINSt7__cxx1112basic_stringIcSt11char_traitsIcESaIcEEES7_EENS_15AssertionResultEPKcSA_RKT_RKT0_
FN:1374,1380,_ZN7testing8internal18CmpHelperEQFailureIPN5ListD4NodeEDnEENS_15AssertionResultEPKcS7_RKT_RKT0_
FN:1374,1380,_ZN7testing8internal18CmpHelperEQFailureIPN5ListS4NodeEDnEENS_15AssertionResultEPKcS7_RKT_RKT0_
FN:1374,1380,_ZN7testing8internal18CmpHelperEQFailureIPN5Queue4NodeEDnEENS_15AssertionResultEPKcS7_RKT_RKT0_
FN:1374,1380,_ZN7testing8internal18CmpHelperEQFailureIPN5Stack4NodeEDnEENS_15AssertionResultEPKcS7_RKT_RKT0_
FN:1374,1380,_ZN7testing8internal18CmpHelperEQFailureImiEENS_15AssertionResultEPKcS4_RKT_RKT0_
FN:1374,1380,_ZN7testing8internal18CmpHelperEQFailureImmEENS_15AssertionResultEPKcS4_RKT_RKT0_
FN:1391,1399,_ZN7testing8internal11CmpHelperEQINSt7__cxx1112basic_stringIcSt11char_traitsIcESaIcEEEA11_cEENS_15AssertionResultEPKcSB_RKT_RKT0_
FN:1391,1399,_ZN7testing8internal11CmpHelperEQINSt7__cxx1112basic_stringIcSt11char_traitsIcESaIcEEEA14_cEENS_15AssertionResultEPKcSB_RKT_RKT0_
FN:1391,1399,_ZN7testing8internal11CmpHelperEQINSt7__cxx1112basic_stringIcSt11char_traitsIcESaIcEEEA21_cEENS_15AssertionResultEPKcSB_RKT_RKT0_
FN:1391,1399,_ZN7testing8internal11CmpHelperEQINSt7__cxx1112basic_stringIcSt11char_traitsIcESaIcEEEA23_cEENS_15AssertionResultEPKcSB_RKT_RKT0_
FN:1391,1399,_ZN7testing8internal11CmpHelperEQINSt7__cxx1112basic_stringIcSt11char_traitsIcESaIcEEEA2_cEENS_15AssertionResultEPKcSB_RKT_RKT0_
FN:1391,1399,_ZN7testing8internal11CmpHelperEQINSt7__cxx1112basic_stringIcSt11char_traitsIcESaIcEEEA30_cEENS_15AssertionResultEPKcSB_RKT_RKT0_
FN:1391,1399,_ZN7testing8internal11CmpHelperEQINSt7__cxx1112basic_stringIcSt11char_traitsIcESaIcEEEA34_cEENS_15AssertionResultEPKcSB_RKT_RKT0_
FN:1391,1399,_ZN7testing8internal11CmpHelperEQINSt7__cxx1112basic_stringIcSt11char_traitsIcESaIcEEEA35_cEENS_15AssertionResultEPKcSB_RKT_RKT0_
FN:1391,1399,_ZN7testing8internal11CmpHelperEQINSt7__cxx1112basic_stringIcSt11char_traitsIcESaIcEEEA4_cEENS_15AssertionResultEPKcSB_RKT_RKT0_
FN:1391,1399,_ZN7testing8internal11CmpHelperEQINSt7__cxx1112basic_stringIcSt11char_traitsIcESaIcEEEA5_cEENS_15AssertionResultEPKcSB_RKT_RKT0_
FN:1391,1399,_ZN7testing8internal11CmpHelperEQINSt7__cxx1112basic_stringIcSt11char_traitsIcESaIcEEEA6_cEENS_15AssertionResultEPKcSB_RKT_RKT0_
FN:1391,1399,_ZN7testing8internal11CmpHelperEQINSt7__cxx1112basic_stringIcSt11char_traitsIcESaIcEEEA7_cEENS_15AssertionResultEPKcSB_RKT_RKT0_
FN:1391,1399,_ZN7testing8internal11CmpHelperEQINSt7__cxx1112basic_stringIcSt11char_traitsIcESaIcEEEA9_cEENS_15AssertionResultEPKcSB_RKT_RKT0_
FN:1391,1399,_ZN7testing8internal11CmpHelperEQINSt7__cxx1112basic_stringIcSt11char_traitsIcESaIcEEES7_EENS_15AssertionResultEPKcSA_RKT_RKT0_
FN:1391,1399,_ZN7testing8internal11CmpHelperEQIPN5ListD4NodeEDnEENS_15AssertionResultEPKcS7_RKT_RKT0_
FN:1391,1399,_ZN7testing8internal11CmpHelperEQIPN5ListS4NodeEDnEENS_15AssertionResultEPKcS7_RKT_RKT0_
FN:1391,1399,_ZN7testing8internal11CmpHelperEQIPN5Queue4NodeEDnEENS_15AssertionResultEPKcS7_RKT_RKT0_
FN:1391,1399,_ZN7testing8internal11CmpHelperEQIPN5Stack4NodeEDnEENS_15AssertionResultEPKcS7_RKT_RKT0_
FN:1391,1399,_ZN7testing8internal11CmpHelperEQImiEENS_15AssertionResultEPKcS4_RKT_RKT0_
FN:1391,1399,_ZN7testing8internal11CmpHelperEQImmEENS_15AssertionResultEPKcS4_RKT_RKT0_
FN:1410,1414,_ZN7testing8internal8EqHelper7CompareINSt7__cxx1112basic_stringIcSt11char_traitsIcESaIcEEEA11_cLPv0EEENS_15AssertionResultEPKcSD_RKT_RKT0_
FN:1410,1414,_ZN7testing8internal8EqHelper7CompareINSt7__cxx1112basic_stringIcSt11char_traitsIcESaIcEEEA14_cLPv0EEENS_15AssertionResultEPKcSD_RKT_RKT0_
FN:1410,1414,_ZN7testing8internal8EqHelper7CompareINSt7__cxx1112basic_stringIcSt11char_traitsIcESaIcEEEA21_cLPv0EEENS_15AssertionResultEPKcSD_RKT_RKT0_
FN:1410,1414,_ZN7testing8internal8EqHelper7CompareINSt7__cxx1112basic_stringIcSt11char_traitsIcESaIcEEEA23_cLPv0EEENS_15AssertionResultEPKcSD_RKT_RKT0_
FN:1410,1414,_ZN7testing8internal8EqHelper7CompareINSt7__cxx1112basic_stringIcSt11char_traitsIcESaIcEEEA2_cLPv0EEENS_15AssertionResultEPKcSD_RKT_RKT0_
FN:1410,1414,_ZN7testing8internal8EqHelper7CompareINSt7__cxx1112basic_stringIcSt11char_traitsIcESaIcEEEA30_cLPv0EEENS_15AssertionResultEPKcSD_RKT_RKT0_
FN:1410,1414,_ZN7testing8internal8EqHelper7CompareINSt7__cxx1112basic_stringIcSt11char_traitsIcESaIcEEEA34_cLPv0EEENS_15AssertionResultEPKcSD_RKT_RKT0_
FN:1410,1414,_ZN7testing8internal8EqHelper7CompareINSt7__cxx1112basic_stringIcSt11char_traitsIcESaIcEEEA35_cLPv0EEENS_15AssertionResultEPKcSD_RKT_RKT0_
FN:1410,1414,_ZN7testing8internal8EqHelper7CompareINSt7__cxx1112basic_stringIcSt11char_traitsIcESaIcEEEA4_cLPv0EEENS_15AssertionResultEPKcSD_RKT_RKT0_
FN:1410,1414,_ZN7testing8internal8EqHelper7CompareINSt7__cxx1112basic_stringIcSt11char_traitsIcESaIcEEEA5_cLPv0EEENS_15AssertionResultEPKcSD_RKT_RKT0_
FN:1410,1414,_ZN7testing8internal8EqHelper7CompareINSt7__cxx1112basic_stringIcSt11char_traitsIcESaIcEEEA6_cLPv0EEENS_15AssertionResultEPKcSD_RKT_RKT0_
FN:1410,1414,_ZN7testing8internal8EqHelper7CompareINSt7__cxx1112basic_stringIcSt11char_traitsIcESaIcEEEA7_cLPv0EEENS_15AssertionResultEPKcSD_RKT_RKT0_
FN:1410,1414,_ZN7testing8internal8EqHelper7CompareINSt7__cxx1112basic_stringIcSt11char_traitsIcESaIcEEEA9_cLPv0EEENS_15AssertionResultEPKcSD_RKT_RKT0_
FN:1410,1414,_ZN7testing8internal8EqHelper7CompareINSt7__cxx1112basic_stringIcSt11char_traitsIcESaIcEEES8_LPv0EEENS_15AssertionResultEPKcSC_RKT_RKT0_
FN:1410,1414,_ZN7testing8internal8EqHelper7CompareIPN5ListD4NodeEDnLPv0EEENS_15AssertionResultEPKcS9_RKT_RKT0_
FN:1410,1414,_ZN7testing8internal8EqHelper7CompareIPN5ListS4NodeEDnLPv0EEENS_15AssertionResultEPKcS9_RKT_RKT0_
FN:1410,1414,_ZN7testing8internal8EqHelper7CompareIPN5Queue4NodeEDnLPv0EEENS_15AssertionResultEPKcS9_RKT_RKT0_
FN:1410,1414,_ZN7testing8internal8EqHelper7CompareIPN5Stack4NodeEDnLPv0EEENS_15AssertionResultEPKcS9_RKT_RKT0_
FN:1410,1414,_ZN7testing8internal8EqHelper7CompareImiLPv0EEENS_15AssertionResultEPKcS6_RKT_RKT0_
FN:1410,1414,_ZN7testing8internal8EqHelper7CompareImmLPv0EEENS_15AssertionResultEPKcS6_RKT_RKT0_
FN:1443,1450,_ZN7testing8internal18CmpHelperOpFailureINSt7__cxx1112basic_stringIcSt11char_traitsIcESaIcEEEA1_cEENS_15AssertionResultEPKcSB_RKT_RKT0_SB_
FN:1443,1450,_ZN7testing8internal18CmpHelperOpFailureIPN5ListS4NodeEDnEENS_15AssertionResultEPKcS7_RKT_RKT0_S7_
FN:1443,1450,_ZN7testing8internal18CmpHelperOpFailureIPN5Queue4NodeEDnEENS_15AssertionResultEPKcS7_RKT_RKT0_S7_
FN:1443,1450,_ZN7testing8internal18CmpHelperOpFailureIPN5Stack4NodeEDnEENS_15AssertionResultEPKcS7_RKT_RKT0_S7_
FN:1472,1472,_ZN7testing8internal11CmpHelperNEINSt7__cxx1112basic_stringIcSt11char_traitsIcESaIcEEEA1_cEENS_15AssertionResultEPKcSB_RKT_RKT0_
FN:1472,1472,_ZN7testing8internal11CmpHelperNEIPN5ListS4NodeEDnEENS_15AssertionResultEPKcS7_RKT_RKT0_
FN:1472,1472,_ZN7testing8internal11CmpHelperNEIPN5Queue4NodeEDnEENS_15AssertionResultEPKcS7_RKT_RKT0_
FN:1472,1472,_ZN7testing8internal11CmpHelperNEIPN5Stack4NodeEDnEENS_15AssertionResultEPKcS7_RKT_RKT0_
FN:2334,2334,_Z13RUN_ALL_TESTSv
FN:255,255,_ZN7testing4Test14SetUpTestSuiteEv
FN:263,263,_ZN7testing4Test17TearDownTestSuiteEv
FN:268,268,_ZN7testing4Test16TearDownTestCaseEv
FN:269,269,_ZN7testing4Test13SetUpTestCaseEv
FN:356,356,_ZN7testing4Test5SetupEv
FNDA:0,_ZN7testing8internal18CmpHelperEQFailureINSt7__cxx1112basic_stringIcSt11char_traitsIcESaIcEEEA11_cEENS_15AssertionResultEPKcSB_RKT_RKT0_
FNDA:0,_ZN7testing8internal18CmpHelperEQFailureINSt7__cxx1112basic_stringIcSt11char_traitsIcESaIcEEEA14_cEENS_15AssertionResultEPKcSB_RKT_RKT0_
FNDA:0,_ZN7testing8internal18CmpHelperEQFailureINSt7__cxx1112basic_stringIcSt11char_traitsIcESaIcEEEA21_cEENS_15AssertionResultEPKcSB_RKT_RKT0_
FNDA:0,_ZN7testing8internal18CmpHelperEQFailureINSt7__cxx1112basic_stringIcSt11char_traitsIcESaIcEEEA23_cEENS_15AssertionResultEPKcSB_RKT_RKT0_
FNDA:0,_ZN7testing8internal18CmpHelperEQFailureINSt7__cxx1112basic_stringIcSt11char_traitsIcESaIcEEEA2_cEENS_15AssertionResultEPKcSB_RKT_RKT0_
FNDA:0,_ZN7testing8internal18CmpHelperEQFailureINSt7__cxx1112basic_stringIcSt11char_traitsIcESaIcEEEA30_cEENS_15AssertionResultEPKcSB_RKT_RKT0_
FNDA:0,_ZN7testing8internal18CmpHelperEQFailureINSt7__cxx1112basic_stringIcSt11char_traitsIcESaIcEEEA34_cEENS_15AssertionResultEPKcSB_RKT_RKT0_
FNDA:0,_ZN7testing8internal18CmpHelperEQFailureINSt7__cxx1112basic_stringIcSt11char_traitsIcESaIcEEEA35_cEENS_15AssertionResultEPKcSB_RKT_RKT0_
FNDA:0,_ZN7testing8internal18CmpHelperEQFailureINSt7__cxx1112basic_stringIcSt11char_traitsIcESaIcEEEA4_cEENS_15AssertionResultEPKcSB_RKT_RKT0_
FNDA:0,_ZN7testing8internal18CmpHelperEQFailureINSt7__cxx1112basic_stringIcSt11char_traitsIcESaIcEEEA5_cEENS_15AssertionResultEPKcSB_RKT_RKT0_
FNDA:0,_ZN7testing8internal18CmpHelperEQFailureINSt7__cxx1112basic_stringIcSt11char_traitsIcESaIcEEEA6_cEENS_15AssertionResultEPKcSB_RKT_RKT0_
FNDA:0,_ZN7testing8internal18CmpHelperEQFailureINSt7__cxx1112basic_stringIcSt11char_traitsIcESaIcEEEA7_cEENS_15AssertionResultEPKcSB_RKT_RKT0_
FNDA:0,_ZN7testing8internal18CmpHelperEQFailureINSt7__cxx1112basic_stringIcSt11char_traitsIcESaIcEEEA9_cEENS_15AssertionResultEPKcSB_RKT_RKT0_
FNDA:0,_ZN7testing8internal18CmpHelperEQFailureINSt7__cxx1112basic_stringIcSt11char_traitsIcESaIcEEES7_EENS_15AssertionResultEPKcSA_RKT_RKT0_
FNDA:0,_ZN7testing8internal18CmpHelperEQFailureIPN5ListD4NodeEDnEENS_15AssertionResultEPKcS7_RKT_RKT0_
FNDA:0,_ZN7testing8internal18CmpHelperEQFailureIPN5ListS4NodeEDnEENS_15AssertionResultEPKcS7_RKT_RKT0_
FNDA:0,_ZN7testing8internal18CmpHelperEQFailureIPN5Queue4NodeEDnEENS_15AssertionResultEPKcS7_RKT_RKT0_
FNDA:0,_ZN7testing8internal18CmpHelperEQFailureIPN5Stack4NodeEDnEENS_15AssertionResultEPKcS7_RKT_RKT0_
FNDA:0,_ZN7testing8internal18CmpHelperEQFailureImiEENS_15AssertionResultEPKcS4_RKT_RKT0_
FNDA:0,_ZN7testing8internal18CmpHelperEQFailureImmEENS_15AssertionResultEPKcS4_RKT_RKT0_
FNDA:10,_ZN7testing8internal11CmpHelperEQINSt7__cxx1112basic_stringIcSt11char_traitsIcESaIcEEEA11_cEENS_15AssertionResultEPKcSB_RKT_RKT0_
FNDA:2,_ZN7testing8internal11CmpHelperEQINSt7__cxx1112basic_stringIcSt11char_traitsIcESaIcEEEA14_cEENS_15AssertionResultEPKcSB_RKT_RKT0_
FNDA:8,_ZN7testing8internal11CmpHelperEQINSt7__cxx1112basic_stringIcSt11char_traitsIcESaIcEEEA21_cEENS_15AssertionResultEPKcSB_RKT_RKT0_
FNDA:4,_ZN7testing8internal11CmpHelperEQINSt7__cxx1112basic_stringIcSt11char_traitsIcESaIcEEEA23_cEENS_15AssertionResultEPKcSB_RKT_RKT0_
FNDA:2,_ZN7testing8internal11CmpHelperEQINSt7__cxx1112basic_stringIcSt11char_traitsIcESaIcEEEA2_cEENS_15AssertionResultEPKcSB_RKT_RKT0_
FNDA:4,_ZN7testing8internal11CmpHelperEQINSt7__cxx1112basic_stringIcSt11char_traitsIcESaIcEEEA30_cEENS_15AssertionResultEPKcSB_RKT_RKT0_
FNDA:2,_ZN7testing8internal11CmpHelperEQINSt7__cxx1112basic_stringIcSt11char_traitsIcESaIcEEEA34_cEENS_15AssertionResultEPKcSB_RKT_RKT0_
FNDA:2,_ZN7testing8internal11CmpHelperEQINSt7__cxx1112basic_stringIcSt11char_traitsIcESaIcEEEA35_cEENS_15AssertionResultEPKcSB_RKT_RKT0_
FNDA:14,_ZN7testing8internal11CmpHelperEQINSt7__cxx1112basic_stringIcSt11char_traitsIcESaIcEEEA4_cEENS_15AssertionResultEPKcSB_RKT_RKT0_
FNDA:4,_ZN7testing8internal11CmpHelperEQINSt7__cxx1112basic_stringIcSt11char_traitsIcESaIcEEEA5_cEENS_15AssertionResultEPKcSB_RKT_RKT0_
FNDA:14,_ZN7testing8internal11CmpHelperEQINSt7__cxx1112basic_stringIcSt11char_traitsIcESaIcEEEA6_cEENS_15AssertionResultEPKcSB_RKT_RKT0_
FNDA:100,_ZN7testing8internal11CmpHelperEQINSt7__cxx1112basic_stringIcSt11char_traitsIcESaIcEEEA7_cEENS_15AssertionResultEPKcSB_RKT_RKT0_
FNDA:4,_ZN7testing8internal11CmpHelperEQINSt7__cxx1112basic_stringIcSt11char_traitsIcESaIcEEEA9_cEENS_15AssertionResultEPKcSB_RKT_RKT0_
FNDA:2008,_ZN7testing8internal11CmpHelperEQINSt7__cxx1112basic_stringIcSt11char_traitsIcESaIcEEES7_EENS_15AssertionResultEPKcSA_RKT_RKT0_
FNDA:12,_ZN7testing8internal11CmpHelperEQIPN5ListD4NodeEDnEENS_15AssertionResultEPKcS7_RKT_RKT0_
FNDA:16,_ZN7testing8internal11CmpHelperEQIPN5ListS4NodeEDnEENS_15AssertionResultEPKcS7_RKT_RKT0_
FNDA:8,_ZN7testing8internal11CmpHelperEQIPN5Queue4NodeEDnEENS_15AssertionResultEPKcS7_RKT_RKT0_
FNDA:4,_ZN7testing8internal11CmpHelperEQIPN5Stack4NodeEDnEENS_15AssertionResultEPKcS7_RKT_RKT0_
FNDA:18,_ZN7testing8internal11CmpHelperEQImiEENS_15AssertionResultEPKcS4_RKT_RKT0_
FNDA:6,_ZN7testing8internal11CmpHelperEQImmEENS_15AssertionResultEPKcS4_RKT_RKT0_
FNDA:10,_ZN7testing8internal8EqHelper7CompareINSt7__cxx1112basic_stringIcSt11char_traitsIcESaIcEEEA11_cLPv0EEENS_15AssertionResultEPKcSD_RKT_RKT0_
FNDA:2,_ZN7testing8internal8EqHelper7CompareINSt7__cxx1112basic_stringIcSt11char_traitsIcESaIcEEEA14_cLPv0EEENS_15AssertionResultEPKcSD_RKT_RKT0_
FNDA:8,_ZN7testing8internal8EqHelper7CompareINSt7__cxx1112basic_stringIcSt11char_traitsIcESaIcEEEA21_cLPv0EEENS_15AssertionResultEPKcSD_RKT_RKT0_
FNDA:4,_ZN7testing8internal8EqHelper7CompareINSt7__cxx1112basic_stringIcSt11char_traitsIcESaIcEEEA23_cLPv0EEENS_15AssertionResultEPKcSD_RKT_RKT0_
FNDA:2,_ZN7testing8internal8EqHelper7CompareINSt7__cxx1112basic_stringIcSt11char_traitsIcESaIcEEEA2_cLPv0EEENS_15AssertionResultEPKcSD_RKT_RKT0_
FNDA:4,_ZN7testing8internal8EqHelper7CompareINSt7__cxx1112basic_stringIcSt11char_traitsIcESaIcEEEA30_cLPv0EEENS_15AssertionResultEPKcSD_RKT_RKT0_
FNDA:2,_ZN7testing8internal8EqHelper7CompareINSt7__cxx1112basic_stringIcSt11char_traitsIcESaIcEEEA34_cLPv0EEENS_15AssertionResultEPKcSD_RKT_RKT0_
FNDA:2,_ZN7testing8internal8EqHelper7CompareINSt7__cxx1112basic_stringIcSt11char_traitsIcESaIcEEEA35_cLPv0EEENS_15AssertionResultEPKcSD_RKT_RKT0_
FNDA:14,_ZN7testing8internal8EqHelper7CompareINSt7__cxx1112basic_stringIcSt11char_traitsIcESaIcEEEA4_cLPv0EEENS_15AssertionResultEPKcSD_RKT_RKT0_
FNDA:4,_ZN7testing8internal8EqHelper7CompareINSt7__cxx1112basic_stringIcSt11char_traitsIcESaIcEEEA5_cLPv0EEENS_15AssertionResultEPKcSD_RKT_RKT0_
FNDA:14,_ZN7testing8internal8EqHelper7CompareINSt7__cxx1112basic_stringIcSt11char_traitsIcESaIcEEEA6_cLPv0EEENS_15AssertionResultEPKcSD_RKT_RKT0_
FNDA:100,_ZN7testing8internal8EqHelper7CompareINSt7__cxx1112basic_stringIcSt11char_traitsIcESaIcEEEA7_cLPv0EEENS_15AssertionResultEPKcSD_RKT_RKT0_
FNDA:4,_ZN7testing8internal8EqHelper7CompareINSt7__cxx1112basic_stringIcSt11char_traitsIcESaIcEEEA9_cLPv0EEENS_15AssertionResultEPKcSD_RKT_RKT0_
FNDA:2008,_ZN7testing8internal8EqHelper7CompareINSt7__cxx1112basic_stringIcSt11char_traitsIcESaIcEEES8_LPv0EEENS_15AssertionResultEPKcSC_RKT_RKT0_
FNDA:12,_ZN7testing8internal8EqHelper7CompareIPN5ListD4NodeEDnLPv0EEENS_15AssertionResultEPKcS9_RKT_RKT0_
FNDA:16,_ZN7testing8internal8EqHelper7CompareIPN5ListS4NodeEDnLPv0EEENS_15AssertionResultEPKcS9_RKT_RKT0_
FNDA:8,_ZN7testing8internal8EqHelper7CompareIPN5Queue4NodeEDnLPv0EEENS_15AssertionResultEPKcS9_RKT_RKT0_
FNDA:4,_ZN7testing8internal8EqHelper7CompareIPN5Stack4NodeEDnLPv0EEENS_15AssertionResultEPKcS9_RKT_RKT0_
FNDA:18,_ZN7testing8internal8EqHelper7CompareImiLPv0EEENS_15AssertionResultEPKcS6_RKT_RKT0_
FNDA:6,_ZN7testing8internal8EqHelper7CompareImmLPv0EEENS_15AssertionResultEPKcS6_RKT_RKT0_
FNDA:0,_ZN7testing8internal18CmpHelperOpFailureINSt7__cxx1112basic_stringIcSt11char_traitsIcESaIcEEEA1_cEENS_15AssertionResultEPKcSB_RKT_RKT0_SB_
FNDA:0,_ZN7testing8internal18CmpHelperOpFailureIPN5ListS4NodeEDnEENS_15AssertionResultEPKcS7_RKT_RKT0_S7_
FNDA:0,_ZN7testing8internal18CmpHelperOpFailureIPN5Queue4NodeEDnEENS_15AssertionResultEPKcS7_RKT_RKT0_S7_
FNDA:0,_ZN7testing8internal18CmpHelperOpFailureIPN5Stack4NodeEDnEENS_15AssertionResultEPKcS7_RKT_RKT0_S7_
FNDA:2,_ZN7testing8internal11CmpHelperNEINSt7__cxx1112basic_stringIcSt11char_traitsIcESaIcEEEA1_cEENS_15AssertionResultEPKcSB_RKT_RKT0_
FNDA:4,_ZN7testing8internal11CmpHelperNEIPN5ListS4NodeEDnEENS_15AssertionResultEPKcS7_RKT_RKT0_
FNDA:4,_ZN7testing8internal11CmpHelperNEIPN5Queue4NodeEDnEENS_15AssertionResultEPKcS7_RKT_RKT0_
FNDA:2,_ZN7testing8internal11CmpHelperNEIPN5Stack4NodeEDnEENS_15AssertionResultEPKcS7_RKT_RKT0_
FNDA:2,_Z13RUN_ALL_TESTSv
FNDA:0,_ZN7testing4Test14SetUpTestSuiteEv
FNDA:0,_ZN7testing4Test17TearDownTestSuiteEv
FNDA:0,_ZN7testing4Test16TearDownTestCaseEv
FNDA:0,_ZN7testing4Test13SetUpTestCaseEv
FNDA:0,_ZN7testing4Test5SetupEv
FNF:74
FNH:45
DA:255,0
DA:263,0
DA:268,0
DA:269,0
DA:356,0
DA:1374,0
DA:1378,0
DA:1379,0
DA:1391,2242
DA:1394,2242
DA:1395,2242
DA:1398,0
DA:1410,2242
DA:1413,2242
DA:1443,0
DA:1446,0
DA:1447,0
DA:1448,0
DA:1449,0
DA:1472,12
DA:2334,2
LF:21
LH:7
end_of_record
TN:
SF:/usr/local/include/gtest/internal/gtest-internal.h
FN:437,437,_ZN7testing8internal15TestFactoryBaseD0Ev
FN:437,437,_ZN7testing8internal15TestFactoryBaseD2Ev
FN:444,444,_ZN7testing8internal15TestFactoryBaseC2Ev
FN:456,456,_ZN7testing8internal15TestFactoryImplI19QueueTest_Push_TestE10CreateTestEv
FN:456,456,_ZN7testing8internal15TestFactoryImplI19StackTest_Push_TestE10CreateTestEv
FN:456,456,_ZN7testing8internal15TestFactoryImplI21QueueTest_Delete_TestE10CreateTestEv
FN:456,456,_ZN7testing8internal15TestFactoryImplI21StackTest_Delete_TestE10CreateTestEv
FN:456,456,_ZN7testing8internal15TestFactoryImplI21StrArrayTest_Get_TestE10CreateTestEv
FN:456,456,_ZN7testing8internal15TestFactoryImplI22StrArrayTest_Push_TestE10CreateTestEv
FN:456,456,_ZN7testing8internal15TestFactoryImplI23AVLTreeTest_Remove_TestE10CreateTestEv
FN:456,456,_ZN7testing8internal15TestFactoryImplI23ListDTest_PushHead_TestE10CreateTestEv
FN:456,456,_ZN7testing8internal15TestFactoryImplI23ListDTest_PushTail_TestE10CreateTestEv
FN:456,456,_ZN7testing8internal15TestFactoryImplI23ListSTest_PushHead_TestE10CreateTestEv
FN:456,456,_ZN7testing8internal15TestFactoryImplI23ListSTest_PushTail_TestE10CreateTestEv
FN:456,456,_ZN7testing8internal15TestFactoryImplI23StrArrayTest_Pushi_TestE10CreateTestEv
FN:456,456,_ZN7testing8internal15TestFactoryImplI24ListDTest_PrintList_TestE10CreateTestEv
FN:456,456,_ZN7testing8internal15TestFactoryImplI24StrArrayTest_Delete_TestE10CreateTestEv
FN:456,456,_ZN7testing8internal15TestFactoryImplI24StrArrayTest_Resize_TestE10CreateTestEv
FN:456,456,_ZN7testing8internal15TestFactoryImplI25ListDTest_CreateList_TestE10CreateTestEv
FN:456,456,_ZN7testing8internal15TestFactoryImplI25ListDTest_DeleteHead_TestE10CreateTestEv
FN:456,456,_ZN7testing8internal15TestFactoryImplI25ListDTest_DeleteTail_TestE10CreateTestEv
FN:456,456,_ZN7testing8internal15TestFactoryImplI25ListDTest_SaveToFile_TestE10CreateTestEv
FN:456,456,_ZN7testing8internal15TestFactoryImplI25ListSTest_CreateList_TestE10CreateTestEv
FN:456,456,_ZN7testing8internal15TestFactoryImplI25ListSTest_DeleteHead_TestE10CreateTestEv
FN:456,456,_ZN7testing8internal15TestFactoryImplI25ListSTest_DeleteTail_TestE10CreateTestEv
FN:456,456,_ZN7testing8internal15TestFactoryImplI25ListSTest_SaveToFile_TestE10CreateTestEv
FN:456,456,_ZN7testing8internal15TestFactoryImplI25QueueTest_SaveToFile_TestE10CreateTestEv
FN:456,456,_ZN7testing8internal15TestFactoryImplI25StackTest_SaveToFile_TestE10CreateTestEv
FN:456,456,_ZN7testing8internal15TestFactoryImplI25StrArrayTest_Replace_TestE10CreateTestEv
FN:456,456,_ZN7testing8internal15TestFactoryImplI26AVLTreeTest_EmptyTree_TestE10CreateTestEv
FN:456,456,_ZN7testing8internal15TestFactoryImplI26ListDTest_DeleteValue_TestE10CreateTestEv
FN:456,456,_ZN7testing8internal15TestFactoryImplI26QueueTest_CreateQueue_TestE10CreateTestEv
FN:456,456,_ZN7testing8internal15TestFactoryImplI26StackTest_CreateStack_TestE10CreateTestEv
FN:456,456,_ZN7testing8internal15TestFactoryImplI28ListSTest_DeltEmptyList_TestE10CreateTestEv
FN:456,456,_ZN7testing8internal15TestFactoryImplI28StrArrayTest_SaveToFile_TestE10CreateTestEv
FN:456,456,_ZN7testing8internal15TestFactoryImplI30HashTableTest_GetKeyFound_TestE10CreateTestEv
FN:456,456,_ZN7testing8internal15TestFactoryImplI30HashTableTest_PushSuccess_TestE10CreateTestEv
FN:456,456,_ZN7testing8internal15TestFactoryImplI30ListSTest_DelvHeadElement_TestE10CreateTestEv
FN:456,456,_ZN7testing8internal15TestFactoryImplI31ListDTest_SaveToBinaryFile_TestE10CreateTestEv
FN:456,456,_ZN7testing8internal15TestFactoryImplI32AVLTreeTest_InsertAndSearch_TestE10CreateTestEv
FN:456,456,_ZN7testing8internal15TestFactoryImplI32StrArrayTest_Initialization_TestE10CreateTestEv
FN:456,456,_ZN7testing8internal15TestFactoryImplI33AVLTreeTest_InsertDuplicates_TestE10CreateTestEv
FN:456,456,_ZN7testing8internal15TestFactoryImplI33HashTableTest_GetKeyNotFound_TestE10CreateTestEv
FN:456,456,_ZN7testing8internal15TestFactoryImplI33ListDTest_LoadFromBinaryFile_TestE10CreateTestEv
FN:456,456,_ZN7testing8internal15TestFactoryImplI34AVLTreeTest_RemoveNonExistent_TestE10CreateTestEv
FN:456,456,_ZN7testing8internal15TestFactoryImplI34HashTableTest_CreateHashTable_TestE10CreateTestEv
FN:456,456,_ZN7testing8internal15TestFactoryImplI34HashTableTest_PushExistingKey_TestE10CreateTestEv
FN:456,456,_ZN7testing8internal15TestFactoryImplI34ListSTest_DelvElementNotFound_TestE10CreateTestEv
FN:456,456,_ZN7testing8internal15TestFactoryImplI34StrArrayTest_PushiOutOfBounds_TestE10CreateTestEv
FN:456,456,_ZN7testing8internal15TestFactoryImplI35HashTableTest_DeleteKeySuccess_TestE10CreateTestEv
FN:456,456,_ZN7testing8internal15TestFactoryImplI35HashTableTest_SaveToBinaryFile_TestE10CreateTestEv
FN:456,456,_ZN7testing8internal15TestFactoryImplI36HashTableTest_DeleteKeyNotFound_TestE10CreateTestEv
FN:456,456,_ZN7testing8internal15TestFactoryImplI36ListSTest_DelhSingleElementList_TestE10CreateTestEv
FN:456,456,_ZN7testing8internal15TestFactoryImplI37AVLTreeTest_SerializeDeserialize_TestE10CreateTestEv
FN:456,456,_ZN7testing8internal15TestFactoryImplI37HashTableTest_LoadFromBinaryFile_TestE10CreateTestEv
FN:456,456,_ZN7testing8internal15TestFactoryImplI38HashTableTest_SaveAndLoadFromFile_TestE10CreateTestEv
FN:456,456,_ZN7testing8internal15TestFactoryImplI38StrArrayTest_SerializeDeserialize_TestE10CreateTestEv
FN:456,456,_ZN7testing8internal15TestFactoryImplI42HashTableTest_LargeNumberOfOperations_TestE10CreateTestEv
FN:456,456,_ZN7testing8internal15TestFactoryImplI43ListSTest_SerializationDeserialization_TestE10CreateTestEv
FN:456,456,_ZN7testing8internal15TestFactoryImplI43QueueTest_SerializationDeserialization_TestE10CreateTestEv
FN:456,456,_ZN7testing8internal15TestFactoryImplI43StackTest_SerializationDeserialization_TestE10CreateTestEv
FN:456,456,_ZN7testing8internal15TestFactoryImplI46AVLTreeTest_SerializeDeserializeEmptyTree_TestE10CreateTestEv
FN:456,456,_ZN7testing8internal15TestFactoryImplI54AVLTreeTest_SerializeDeserializeSingleElementTree_TestE10CreateTestEv
FN:477,478,_ZN7testing8internal12CodeLocationC2ENSt7__cxx1112basic_stringIcSt11char_traitsIcESaIcEEEi
FN:490,493,_ZN7testing8internal19GetNotDefaultOrNullEPFvvES2_
FN:505,524,_ZN7testing8internal16SuiteApiResolverINS_4TestEE19GetSetUpCaseOrSuiteEPKci
FN:526,545,_ZN7testing8internal16SuiteApiResolverINS_4TestEE22GetTearDownCaseOrSuiteEPKci
FNDA:0,_ZN7testing8internal15TestFactoryBaseD0Ev
FNDA:120,_ZN7testing8internal15TestFactoryBaseD2Ev
FNDA:120,_ZN7testing8internal15TestFactoryBaseC2Ev
FNDA:2,_ZN7testing8internal15TestFactoryImplI19QueueTest_Push_TestE10CreateTestEv
FNDA:2,_ZN7testing8internal15TestFactoryImplI19StackTest_Push_TestE10CreateTestEv
FNDA:2,_ZN7testing8internal15TestFactoryImplI21QueueTest_Delete_TestE10CreateTestEv
FNDA:2,_ZN7testing8internal15TestFactoryImplI21StackTest_Delete_TestE10CreateTestEv
FNDA:2,_ZN7testing8internal15TestFactoryImplI21StrArrayTest_Get_TestE10CreateTestEv
FNDA:2,_ZN7testing8internal15TestFactoryImplI22StrArrayTest_Push_TestE10CreateTestEv
FNDA:2,_ZN7testing8internal15TestFactoryImplI23AVLTreeTest_Remove_TestE10CreateTestEv
FNDA:2,_ZN7testing8internal15TestFactoryImplI23ListDTest_PushHead_TestE10CreateTestEv
FNDA:2,_ZN7testing8internal15TestFactoryImplI23ListDTest_PushTail_TestE10CreateTestEv
FNDA:2,_ZN7testing8internal15TestFactoryImplI23ListSTest_PushHead_TestE10CreateTestEv
FNDA:2,_ZN7testing8internal15TestFactoryImplI23ListSTest_PushTail_TestE10CreateTestEv
FNDA:2,_ZN7testing8internal15TestFactoryImplI23StrArrayTest_Pushi_TestE10CreateTestEv
FNDA:2,_ZN7testing8internal15TestFactoryImplI24ListDTest_PrintList_TestE10CreateTestEv
FNDA:2,_ZN7testing8internal15TestFactoryImplI24StrArrayTest_Delete_TestE10CreateTestEv
FNDA:2,_ZN7testing8internal15TestFactoryImplI24StrArrayTest_Resize_TestE10CreateTestEv
FNDA:2,_ZN7testing8internal15TestFactoryImplI25ListDTest_CreateList_TestE10CreateTestEv
FNDA:2,_ZN7testing8internal15TestFactoryImplI25ListDTest_DeleteHead_TestE10CreateTestEv
FNDA:2,_ZN7testing8internal15TestFactoryImplI25ListDTest_DeleteTail_TestE10CreateTestEv
FNDA:2,_ZN7testing8internal15TestFactoryImplI25ListDTest_SaveToFile_TestE10CreateTestEv
FNDA:2,_ZN7testing8internal15TestFactoryImplI25ListSTest_CreateList_TestE10CreateTestEv
FNDA:2,_ZN7testing8internal15TestFactoryImplI25ListSTest_DeleteHead_TestE10CreateTestEv
FNDA:2,_ZN7testing8internal15TestFactoryImplI25ListSTest_DeleteTail_TestE10CreateTestEv
FNDA:2,_ZN7testing8internal15TestFactoryImplI25ListSTest_SaveToFile_TestE10CreateTestEv
FNDA:2,_ZN7testing8internal15TestFactoryImplI25QueueTest_SaveToFile_TestE10CreateTestEv
FNDA:2,_ZN7testing8internal15TestFactoryImplI25StackTest_SaveToFile_TestE10CreateTestEv
FNDA:2,_ZN7testing8internal15TestFactoryImplI25StrArrayTest_Replace_TestE10CreateTestEv
FNDA:2,_ZN7testing8internal15TestFactoryImplI26AVLTreeTest_EmptyTree_TestE10CreateTestEv
FNDA:2,_ZN7testing8internal15TestFactoryImplI26ListDTest_DeleteValue_TestE10CreateTestEv
FNDA:2,_ZN7testing8internal15TestFactoryImplI26QueueTest_CreateQueue_TestE10CreateTestEv
FNDA:2,_ZN7testing8internal15TestFactoryImplI26StackTest_CreateStack_TestE10CreateTestEv
FNDA:2,_ZN7testing8internal15TestFactoryImplI28ListSTest_DeltEmptyList_TestE10CreateTestEv
FNDA:2,_ZN7testing8internal15TestFactoryImplI28StrArrayTest_SaveToFile_TestE10CreateTestEv
FNDA:2,_ZN7testing8internal15TestFactoryImplI30HashTableTest_GetKeyFound_TestE10CreateTestEv
FNDA:2,_ZN7testing8internal15TestFactoryImplI30HashTableTest_PushSuccess_TestE10CreateTestEv
FNDA:2,_ZN7testing8internal15TestFactoryImplI30ListSTest_DelvHeadElement_TestE10CreateTestEv
FNDA:2,_ZN7testing8internal15TestFactoryImplI31ListDTest_SaveToBinaryFile_TestE10CreateTestEv
FNDA:2,_ZN7testing8internal15TestFactoryImplI32AVLTreeTest_InsertAndSearch_TestE10CreateTestEv
FNDA:2,_ZN7testing8internal15TestFactoryImplI32StrArrayTest_Initialization_TestE10CreateTestEv
FNDA:2,_ZN7testing8internal15TestFactoryImplI33AVLTreeTest_InsertDuplicates_TestE10CreateTestEv
FNDA:2,_ZN7testing8internal15TestFactoryImplI33HashTableTest_GetKeyNotFound_TestE10CreateTestEv
FNDA:2,_ZN7testing8internal15TestFactoryImplI33ListDTest_LoadFromBinaryFile_TestE10CreateTestEv
FNDA:2,_ZN7testing8internal15TestFactoryImplI34AVLTreeTest_RemoveNonExistent_TestE10CreateTestEv
FNDA:2,_ZN7testing8internal15TestFactoryImplI34HashTableTest_CreateHashTable_TestE10CreateTestEv
FNDA:2,_ZN7testing8internal15TestFactoryImplI34HashTableTest_PushExistingKey_TestE10CreateTestEv
FNDA:2,_ZN7testing8internal15TestFactoryImplI34ListSTest_DelvElementNotFound_TestE10CreateTestEv
FNDA:2,_ZN7testing8internal15TestFactoryImplI34StrArrayTest_PushiOutOfBounds_TestE10CreateTestEv
FNDA:2,_ZN7testing8internal15TestFactoryImplI35HashTableTest_DeleteKeySuccess_TestE10CreateTestEv
FNDA:2,_ZN7testing8internal15TestFactoryImplI35HashTableTest_SaveToBinaryFile_TestE10CreateTestEv
FNDA:2,_ZN7testing8internal15TestFactoryImplI36HashTableTest_DeleteKeyNotFound_TestE10CreateTestEv
FNDA:2,_ZN7testing8internal15TestFactoryImplI36ListSTest_DelhSingleElementList_TestE10CreateTestEv
FNDA:2,_ZN7testing8internal15TestFactoryImplI37AVLTreeTest_SerializeDeserialize_TestE10CreateTestEv
FNDA:2,_ZN7testing8internal15TestFactoryImplI37HashTableTest_LoadFromBinaryFile_TestE10CreateTestEv
FNDA:2,_ZN7testing8internal15TestFactoryImplI38HashTableTest_SaveAndLoadFromFile_TestE10CreateTestEv
FNDA:2,_ZN7testing8internal15TestFactoryImplI38StrArrayTest_SerializeDeserialize_TestE10CreateTestEv
FNDA:2,_ZN7testing8internal15TestFactoryImplI42HashTableTest_LargeNumberOfOperations_TestE10CreateTestEv
FNDA:2,_ZN7testing8internal15TestFactoryImplI43ListSTest_SerializationDeserialization_TestE10CreateTestEv
FNDA:2,_ZN7testing8internal15TestFactoryImplI43QueueTest_SerializationDeserialization_TestE10CreateTestEv
FNDA:2,_ZN7testing8internal15TestFactoryImplI43StackTest_SerializationDeserialization_TestE10CreateTestEv
FNDA:2,_ZN7testing8internal15TestFactoryImplI46AVLTreeTest_SerializeDeserializeEmptyTree_TestE10CreateTestEv
FNDA:2,_ZN7testing8internal15TestFactoryImplI54AVLTreeTest_SerializeDeserializeSingleElementTree_TestE10CreateTestEv
FNDA:120,_ZN7testing8internal12CodeLocationC2ENSt7__cxx1112basic_stringIcSt11char_traitsIcESaIcEEEi
FNDA:480,_ZN7testing8internal19GetNotDefaultOrNullEPFvvES2_
FNDA:120,_ZN7testing8internal16SuiteApiResolverINS_4TestEE19GetSetUpCaseOrSuiteEPKci
FNDA:120,_ZN7testing8internal16SuiteApiResolverINS_4TestEE22GetTearDownCaseOrSuiteEPKci
FNF:67
FNH:66
DA:437,120
DA:444,120
DA:456,120
DA:477,120
DA:478,120
DA:490,480
DA:492,480
DA:505,120
DA:509,120
DA:511,120
DA:513,120
DA:516,0
DA:518,120
DA:526,120
DA:530,120
DA:532,120
DA:534,120
DA:537,0
DA:539,120
LF:19
LH:17
end_of_record
TN:
SF:/usr/local/include/gtest/internal/gtest-port.h
FN:1083,1083,_ZN7testing8internal8GTestLog9GetStreamEv
FNDA:0,_ZN7testing8internal8GTestLog9GetStreamEv
FNF:1
FNH:0
DA:1083,0
LF:1
LH:0
end_of_record
